Archive member included to satisfy reference by file (symbol)

/usr/lib/gcc/arm-none-eabi/6.3.1/thumb/v6-m/libgcc.a(_dvmd_tls.o)
                              CMakeFiles/SPO.dir/mnt/c/study/GRAD/249A/proj/EECS249-Smart-Pill-Organizer/pico-sdk/src/rp2_common/pico_divider/divider.S.obj (__aeabi_idiv0)
/usr/lib/gcc/arm-none-eabi/6.3.1/../../../arm-none-eabi/lib/thumb/v6-m/libc.a(lib_a-atexit.o)
                              /usr/lib/gcc/arm-none-eabi/6.3.1/../../../arm-none-eabi/lib/thumb/v6-m/crt0.o (atexit)
/usr/lib/gcc/arm-none-eabi/6.3.1/../../../arm-none-eabi/lib/thumb/v6-m/libc.a(lib_a-atoi.o)
                              CMakeFiles/SPO.dir/Main.c.obj (atoi)
/usr/lib/gcc/arm-none-eabi/6.3.1/../../../arm-none-eabi/lib/thumb/v6-m/libc.a(lib_a-atoll.o)
                              CMakeFiles/SPO.dir/Main.c.obj (atoll)
/usr/lib/gcc/arm-none-eabi/6.3.1/../../../arm-none-eabi/lib/thumb/v6-m/libc.a(lib_a-calloc.o)
                              CMakeFiles/SPO.dir/mnt/c/study/GRAD/249A/proj/EECS249-Smart-Pill-Organizer/pico-sdk/src/rp2_common/pico_malloc/pico_malloc.c.obj (calloc)
/usr/lib/gcc/arm-none-eabi/6.3.1/../../../arm-none-eabi/lib/thumb/v6-m/libc.a(lib_a-callocr.o)
                              /usr/lib/gcc/arm-none-eabi/6.3.1/../../../arm-none-eabi/lib/thumb/v6-m/libc.a(lib_a-calloc.o) (_calloc_r)
/usr/lib/gcc/arm-none-eabi/6.3.1/../../../arm-none-eabi/lib/thumb/v6-m/libc.a(lib_a-ctime.o)
                              CMakeFiles/SPO.dir/Main.c.obj (ctime)
/usr/lib/gcc/arm-none-eabi/6.3.1/../../../arm-none-eabi/lib/thumb/v6-m/libc.a(lib_a-fini.o)
                              /usr/lib/gcc/arm-none-eabi/6.3.1/../../../arm-none-eabi/lib/thumb/v6-m/crt0.o (__libc_fini_array)
/usr/lib/gcc/arm-none-eabi/6.3.1/../../../arm-none-eabi/lib/thumb/v6-m/libc.a(lib_a-impure.o)
                              CMakeFiles/SPO.dir/Main.c.obj (_impure_ptr)
/usr/lib/gcc/arm-none-eabi/6.3.1/../../../arm-none-eabi/lib/thumb/v6-m/libc.a(lib_a-init.o)
                              /usr/lib/gcc/arm-none-eabi/6.3.1/../../../arm-none-eabi/lib/thumb/v6-m/crt0.o (__libc_init_array)
/usr/lib/gcc/arm-none-eabi/6.3.1/../../../arm-none-eabi/lib/thumb/v6-m/libc.a(lib_a-lcltime.o)
                              /usr/lib/gcc/arm-none-eabi/6.3.1/../../../arm-none-eabi/lib/thumb/v6-m/libc.a(lib_a-ctime.o) (localtime)
/usr/lib/gcc/arm-none-eabi/6.3.1/../../../arm-none-eabi/lib/thumb/v6-m/libc.a(lib_a-lcltime_r.o)
                              /usr/lib/gcc/arm-none-eabi/6.3.1/../../../arm-none-eabi/lib/thumb/v6-m/libc.a(lib_a-lcltime.o) (localtime_r)
/usr/lib/gcc/arm-none-eabi/6.3.1/../../../arm-none-eabi/lib/thumb/v6-m/libc.a(lib_a-malloc.o)
                              CMakeFiles/SPO.dir/mnt/c/study/GRAD/249A/proj/EECS249-Smart-Pill-Organizer/pico-sdk/src/rp2_common/pico_malloc/pico_malloc.c.obj (malloc)
/usr/lib/gcc/arm-none-eabi/6.3.1/../../../arm-none-eabi/lib/thumb/v6-m/libc.a(lib_a-mallocr.o)
                              /usr/lib/gcc/arm-none-eabi/6.3.1/../../../arm-none-eabi/lib/thumb/v6-m/libc.a(lib_a-callocr.o) (_malloc_r)
/usr/lib/gcc/arm-none-eabi/6.3.1/../../../arm-none-eabi/lib/thumb/v6-m/libc.a(lib_a-mlock.o)
                              /usr/lib/gcc/arm-none-eabi/6.3.1/../../../arm-none-eabi/lib/thumb/v6-m/libc.a(lib_a-mallocr.o) (__malloc_lock)
/usr/lib/gcc/arm-none-eabi/6.3.1/../../../arm-none-eabi/lib/thumb/v6-m/libc.a(lib_a-month_lengths.o)
                              /usr/lib/gcc/arm-none-eabi/6.3.1/../../../arm-none-eabi/lib/thumb/v6-m/libc.a(lib_a-lcltime_r.o) (__month_lengths)
/usr/lib/gcc/arm-none-eabi/6.3.1/../../../arm-none-eabi/lib/thumb/v6-m/libc.a(lib_a-realloc.o)
                              CMakeFiles/SPO.dir/Main.c.obj (realloc)
/usr/lib/gcc/arm-none-eabi/6.3.1/../../../arm-none-eabi/lib/thumb/v6-m/libc.a(lib_a-reallocr.o)
                              /usr/lib/gcc/arm-none-eabi/6.3.1/../../../arm-none-eabi/lib/thumb/v6-m/libc.a(lib_a-realloc.o) (_realloc_r)
/usr/lib/gcc/arm-none-eabi/6.3.1/../../../arm-none-eabi/lib/thumb/v6-m/libc.a(lib_a-sbrkr.o)
                              /usr/lib/gcc/arm-none-eabi/6.3.1/../../../arm-none-eabi/lib/thumb/v6-m/libc.a(lib_a-mallocr.o) (_sbrk_r)
/usr/lib/gcc/arm-none-eabi/6.3.1/../../../arm-none-eabi/lib/thumb/v6-m/libc.a(lib_a-signal.o)
                              CMakeFiles/SPO.dir/Main.c.obj (signal)
/usr/lib/gcc/arm-none-eabi/6.3.1/../../../arm-none-eabi/lib/thumb/v6-m/libc.a(lib_a-signalr.o)
                              /usr/lib/gcc/arm-none-eabi/6.3.1/../../../arm-none-eabi/lib/thumb/v6-m/libc.a(lib_a-signal.o) (_kill_r)
/usr/lib/gcc/arm-none-eabi/6.3.1/../../../arm-none-eabi/lib/thumb/v6-m/libc.a(lib_a-strcmp.o)
                              CMakeFiles/SPO.dir/Main.c.obj (strcmp)
/usr/lib/gcc/arm-none-eabi/6.3.1/../../../arm-none-eabi/lib/thumb/v6-m/libc.a(lib_a-strlen-stub.o)
                              CMakeFiles/SPO.dir/Main.c.obj (strlen)
/usr/lib/gcc/arm-none-eabi/6.3.1/../../../arm-none-eabi/lib/thumb/v6-m/libc.a(lib_a-strncmp.o)
                              CMakeFiles/SPO.dir/Main.c.obj (strncmp)
/usr/lib/gcc/arm-none-eabi/6.3.1/../../../arm-none-eabi/lib/thumb/v6-m/libc.a(lib_a-strtol.o)
                              /usr/lib/gcc/arm-none-eabi/6.3.1/../../../arm-none-eabi/lib/thumb/v6-m/libc.a(lib_a-atoi.o) (_strtol_r)
/usr/lib/gcc/arm-none-eabi/6.3.1/../../../arm-none-eabi/lib/thumb/v6-m/libc.a(lib_a-strtoll.o)
                              /usr/lib/gcc/arm-none-eabi/6.3.1/../../../arm-none-eabi/lib/thumb/v6-m/libc.a(lib_a-atoll.o) (strtoll)
/usr/lib/gcc/arm-none-eabi/6.3.1/../../../arm-none-eabi/lib/thumb/v6-m/libc.a(lib_a-strtoll_r.o)
                              /usr/lib/gcc/arm-none-eabi/6.3.1/../../../arm-none-eabi/lib/thumb/v6-m/libc.a(lib_a-atoll.o) (_strtoll_r)
/usr/lib/gcc/arm-none-eabi/6.3.1/../../../arm-none-eabi/lib/thumb/v6-m/libc.a(lib_a-tzcalc_limits.o)
                              /usr/lib/gcc/arm-none-eabi/6.3.1/../../../arm-none-eabi/lib/thumb/v6-m/libc.a(lib_a-lcltime_r.o) (__tzcalc_limits)
/usr/lib/gcc/arm-none-eabi/6.3.1/../../../arm-none-eabi/lib/thumb/v6-m/libc.a(lib_a-tzlock.o)
                              /usr/lib/gcc/arm-none-eabi/6.3.1/../../../arm-none-eabi/lib/thumb/v6-m/libc.a(lib_a-lcltime_r.o) (__tz_lock)
/usr/lib/gcc/arm-none-eabi/6.3.1/../../../arm-none-eabi/lib/thumb/v6-m/libc.a(lib_a-tzset.o)
                              /usr/lib/gcc/arm-none-eabi/6.3.1/../../../arm-none-eabi/lib/thumb/v6-m/libc.a(lib_a-lcltime_r.o) (_tzset_unlocked)
/usr/lib/gcc/arm-none-eabi/6.3.1/../../../arm-none-eabi/lib/thumb/v6-m/libc.a(lib_a-tzset_r.o)
                              /usr/lib/gcc/arm-none-eabi/6.3.1/../../../arm-none-eabi/lib/thumb/v6-m/libc.a(lib_a-tzset.o) (_tzset_unlocked_r)
/usr/lib/gcc/arm-none-eabi/6.3.1/../../../arm-none-eabi/lib/thumb/v6-m/libc.a(lib_a-tzvars.o)
                              /usr/lib/gcc/arm-none-eabi/6.3.1/../../../arm-none-eabi/lib/thumb/v6-m/libc.a(lib_a-tzset_r.o) (_timezone)
/usr/lib/gcc/arm-none-eabi/6.3.1/../../../arm-none-eabi/lib/thumb/v6-m/libc.a(lib_a-vfprintf.o)
                              CMakeFiles/SPO.dir/Main.c.obj (vfprintf)
/usr/lib/gcc/arm-none-eabi/6.3.1/../../../arm-none-eabi/lib/thumb/v6-m/libc.a(lib_a-wbuf.o)
                              CMakeFiles/SPO.dir/mnt/c/study/GRAD/249A/proj/EECS249-Smart-Pill-Organizer/pico-sdk/src/common/pico_util/pheap.c.obj (__swbuf_r)
/usr/lib/gcc/arm-none-eabi/6.3.1/../../../arm-none-eabi/lib/thumb/v6-m/libc.a(lib_a-wsetup.o)
                              /usr/lib/gcc/arm-none-eabi/6.3.1/../../../arm-none-eabi/lib/thumb/v6-m/libc.a(lib_a-vfprintf.o) (__swsetup_r)
/usr/lib/gcc/arm-none-eabi/6.3.1/../../../arm-none-eabi/lib/thumb/v6-m/libc.a(lib_a-__atexit.o)
                              /usr/lib/gcc/arm-none-eabi/6.3.1/../../../arm-none-eabi/lib/thumb/v6-m/libc.a(lib_a-atexit.o) (__register_exitproc)
/usr/lib/gcc/arm-none-eabi/6.3.1/../../../arm-none-eabi/lib/thumb/v6-m/libc.a(lib_a-asctime.o)
                              /usr/lib/gcc/arm-none-eabi/6.3.1/../../../arm-none-eabi/lib/thumb/v6-m/libc.a(lib_a-ctime.o) (asctime)
/usr/lib/gcc/arm-none-eabi/6.3.1/../../../arm-none-eabi/lib/thumb/v6-m/libc.a(lib_a-asctime_r.o)
                              /usr/lib/gcc/arm-none-eabi/6.3.1/../../../arm-none-eabi/lib/thumb/v6-m/libc.a(lib_a-asctime.o) (asctime_r)
/usr/lib/gcc/arm-none-eabi/6.3.1/../../../arm-none-eabi/lib/thumb/v6-m/libc.a(lib_a-ctype_.o)
                              /usr/lib/gcc/arm-none-eabi/6.3.1/../../../arm-none-eabi/lib/thumb/v6-m/libc.a(lib_a-strtol.o) (__ctype_ptr__)
/usr/lib/gcc/arm-none-eabi/6.3.1/../../../arm-none-eabi/lib/thumb/v6-m/libc.a(lib_a-dtoa.o)
                              /usr/lib/gcc/arm-none-eabi/6.3.1/../../../arm-none-eabi/lib/thumb/v6-m/libc.a(lib_a-vfprintf.o) (_dtoa_r)
/usr/lib/gcc/arm-none-eabi/6.3.1/../../../arm-none-eabi/lib/thumb/v6-m/libc.a(lib_a-fflush.o)
                              /usr/lib/gcc/arm-none-eabi/6.3.1/../../../arm-none-eabi/lib/thumb/v6-m/libc.a(lib_a-vfprintf.o) (_fflush_r)
/usr/lib/gcc/arm-none-eabi/6.3.1/../../../arm-none-eabi/lib/thumb/v6-m/libc.a(lib_a-findfp.o)
                              /usr/lib/gcc/arm-none-eabi/6.3.1/../../../arm-none-eabi/lib/thumb/v6-m/libc.a(lib_a-vfprintf.o) (__sinit)
/usr/lib/gcc/arm-none-eabi/6.3.1/../../../arm-none-eabi/lib/thumb/v6-m/libc.a(lib_a-freer.o)
                              /usr/lib/gcc/arm-none-eabi/6.3.1/../../../arm-none-eabi/lib/thumb/v6-m/libc.a(lib_a-malloc.o) (_free_r)
/usr/lib/gcc/arm-none-eabi/6.3.1/../../../arm-none-eabi/lib/thumb/v6-m/libc.a(lib_a-fwalk.o)
                              /usr/lib/gcc/arm-none-eabi/6.3.1/../../../arm-none-eabi/lib/thumb/v6-m/libc.a(lib_a-findfp.o) (_fwalk)
/usr/lib/gcc/arm-none-eabi/6.3.1/../../../arm-none-eabi/lib/thumb/v6-m/libc.a(lib_a-getenv_r.o)
                              /usr/lib/gcc/arm-none-eabi/6.3.1/../../../arm-none-eabi/lib/thumb/v6-m/libc.a(lib_a-tzset_r.o) (_getenv_r)
/usr/lib/gcc/arm-none-eabi/6.3.1/../../../arm-none-eabi/lib/thumb/v6-m/libc.a(lib_a-gettzinfo.o)
                              /usr/lib/gcc/arm-none-eabi/6.3.1/../../../arm-none-eabi/lib/thumb/v6-m/libc.a(lib_a-lcltime_r.o) (__gettzinfo)
/usr/lib/gcc/arm-none-eabi/6.3.1/../../../arm-none-eabi/lib/thumb/v6-m/libc.a(lib_a-gmtime_r.o)
                              /usr/lib/gcc/arm-none-eabi/6.3.1/../../../arm-none-eabi/lib/thumb/v6-m/libc.a(lib_a-lcltime_r.o) (gmtime_r)
/usr/lib/gcc/arm-none-eabi/6.3.1/../../../arm-none-eabi/lib/thumb/v6-m/libc.a(lib_a-locale.o)
                              /usr/lib/gcc/arm-none-eabi/6.3.1/../../../arm-none-eabi/lib/thumb/v6-m/libc.a(lib_a-vfprintf.o) (_localeconv_r)
/usr/lib/gcc/arm-none-eabi/6.3.1/../../../arm-none-eabi/lib/thumb/v6-m/libc.a(lib_a-makebuf.o)
                              /usr/lib/gcc/arm-none-eabi/6.3.1/../../../arm-none-eabi/lib/thumb/v6-m/libc.a(lib_a-wsetup.o) (__smakebuf_r)
/usr/lib/gcc/arm-none-eabi/6.3.1/../../../arm-none-eabi/lib/thumb/v6-m/libc.a(lib_a-memchr-stub.o)
                              /usr/lib/gcc/arm-none-eabi/6.3.1/../../../arm-none-eabi/lib/thumb/v6-m/libc.a(lib_a-vfprintf.o) (memchr)
/usr/lib/gcc/arm-none-eabi/6.3.1/../../../arm-none-eabi/lib/thumb/v6-m/libc.a(lib_a-memmove.o)
                              /usr/lib/gcc/arm-none-eabi/6.3.1/../../../arm-none-eabi/lib/thumb/v6-m/libc.a(lib_a-reallocr.o) (memmove)
/usr/lib/gcc/arm-none-eabi/6.3.1/../../../arm-none-eabi/lib/thumb/v6-m/libc.a(lib_a-mprec.o)
                              /usr/lib/gcc/arm-none-eabi/6.3.1/../../../arm-none-eabi/lib/thumb/v6-m/libc.a(lib_a-dtoa.o) (_Balloc)
/usr/lib/gcc/arm-none-eabi/6.3.1/../../../arm-none-eabi/lib/thumb/v6-m/libc.a(lib_a-reent.o)
                              /usr/lib/gcc/arm-none-eabi/6.3.1/../../../arm-none-eabi/lib/thumb/v6-m/libc.a(lib_a-sbrkr.o) (errno)
/usr/lib/gcc/arm-none-eabi/6.3.1/../../../arm-none-eabi/lib/thumb/v6-m/libc.a(lib_a-siprintf.o)
                              /usr/lib/gcc/arm-none-eabi/6.3.1/../../../arm-none-eabi/lib/thumb/v6-m/libc.a(lib_a-asctime_r.o) (siprintf)
/usr/lib/gcc/arm-none-eabi/6.3.1/../../../arm-none-eabi/lib/thumb/v6-m/libc.a(lib_a-siscanf.o)
                              /usr/lib/gcc/arm-none-eabi/6.3.1/../../../arm-none-eabi/lib/thumb/v6-m/libc.a(lib_a-tzset_r.o) (siscanf)
/usr/lib/gcc/arm-none-eabi/6.3.1/../../../arm-none-eabi/lib/thumb/v6-m/libc.a(lib_a-stdio.o)
                              /usr/lib/gcc/arm-none-eabi/6.3.1/../../../arm-none-eabi/lib/thumb/v6-m/libc.a(lib_a-findfp.o) (__sread)
/usr/lib/gcc/arm-none-eabi/6.3.1/../../../arm-none-eabi/lib/thumb/v6-m/libc.a(lib_a-strcpy.o)
                              /usr/lib/gcc/arm-none-eabi/6.3.1/../../../arm-none-eabi/lib/thumb/v6-m/libc.a(lib_a-tzset_r.o) (strcpy)
/usr/lib/gcc/arm-none-eabi/6.3.1/../../../arm-none-eabi/lib/thumb/v6-m/libc.a(lib_a-strtoul.o)
                              /usr/lib/gcc/arm-none-eabi/6.3.1/../../../arm-none-eabi/lib/thumb/v6-m/libc.a(lib_a-tzset_r.o) (strtoul)
/usr/lib/gcc/arm-none-eabi/6.3.1/../../../arm-none-eabi/lib/thumb/v6-m/libc.a(lib_a-svfiprintf.o)
                              /usr/lib/gcc/arm-none-eabi/6.3.1/../../../arm-none-eabi/lib/thumb/v6-m/libc.a(lib_a-siprintf.o) (_svfiprintf_r)
/usr/lib/gcc/arm-none-eabi/6.3.1/../../../arm-none-eabi/lib/thumb/v6-m/libc.a(lib_a-svfiscanf.o)
                              /usr/lib/gcc/arm-none-eabi/6.3.1/../../../arm-none-eabi/lib/thumb/v6-m/libc.a(lib_a-siscanf.o) (__ssvfiscanf_r)
/usr/lib/gcc/arm-none-eabi/6.3.1/../../../arm-none-eabi/lib/thumb/v6-m/libc.a(lib_a-ungetc.o)
                              /usr/lib/gcc/arm-none-eabi/6.3.1/../../../arm-none-eabi/lib/thumb/v6-m/libc.a(lib_a-svfiscanf.o) (__submore)
/usr/lib/gcc/arm-none-eabi/6.3.1/../../../arm-none-eabi/lib/thumb/v6-m/libc.a(lib_a-vfiprintf.o)
                              /usr/lib/gcc/arm-none-eabi/6.3.1/../../../arm-none-eabi/lib/thumb/v6-m/libc.a(lib_a-vfprintf.o) (__sprint_r)
/usr/lib/gcc/arm-none-eabi/6.3.1/../../../arm-none-eabi/lib/thumb/v6-m/libc.a(lib_a-writer.o)
                              /usr/lib/gcc/arm-none-eabi/6.3.1/../../../arm-none-eabi/lib/thumb/v6-m/libc.a(lib_a-stdio.o) (_write_r)
/usr/lib/gcc/arm-none-eabi/6.3.1/../../../arm-none-eabi/lib/thumb/v6-m/libc.a(lib_a-closer.o)
                              /usr/lib/gcc/arm-none-eabi/6.3.1/../../../arm-none-eabi/lib/thumb/v6-m/libc.a(lib_a-stdio.o) (_close_r)
/usr/lib/gcc/arm-none-eabi/6.3.1/../../../arm-none-eabi/lib/thumb/v6-m/libc.a(lib_a-environ.o)
                              /usr/lib/gcc/arm-none-eabi/6.3.1/../../../arm-none-eabi/lib/thumb/v6-m/libc.a(lib_a-getenv_r.o) (environ)
/usr/lib/gcc/arm-none-eabi/6.3.1/../../../arm-none-eabi/lib/thumb/v6-m/libc.a(lib_a-envlock.o)
                              /usr/lib/gcc/arm-none-eabi/6.3.1/../../../arm-none-eabi/lib/thumb/v6-m/libc.a(lib_a-getenv_r.o) (__env_lock)
/usr/lib/gcc/arm-none-eabi/6.3.1/../../../arm-none-eabi/lib/thumb/v6-m/libc.a(lib_a-fclose.o)
                              /usr/lib/gcc/arm-none-eabi/6.3.1/../../../arm-none-eabi/lib/thumb/v6-m/libc.a(lib_a-findfp.o) (_fclose_r)
/usr/lib/gcc/arm-none-eabi/6.3.1/../../../arm-none-eabi/lib/thumb/v6-m/libc.a(lib_a-fputwc.o)
                              /usr/lib/gcc/arm-none-eabi/6.3.1/../../../arm-none-eabi/lib/thumb/v6-m/libc.a(lib_a-vfiprintf.o) (_fputwc_r)
/usr/lib/gcc/arm-none-eabi/6.3.1/../../../arm-none-eabi/lib/thumb/v6-m/libc.a(lib_a-fstatr.o)
                              /usr/lib/gcc/arm-none-eabi/6.3.1/../../../arm-none-eabi/lib/thumb/v6-m/libc.a(lib_a-makebuf.o) (_fstat_r)
/usr/lib/gcc/arm-none-eabi/6.3.1/../../../arm-none-eabi/lib/thumb/v6-m/libc.a(lib_a-fvwrite.o)
                              /usr/lib/gcc/arm-none-eabi/6.3.1/../../../arm-none-eabi/lib/thumb/v6-m/libc.a(lib_a-vfiprintf.o) (__sfvwrite_r)
/usr/lib/gcc/arm-none-eabi/6.3.1/../../../arm-none-eabi/lib/thumb/v6-m/libc.a(lib_a-isattyr.o)
                              /usr/lib/gcc/arm-none-eabi/6.3.1/../../../arm-none-eabi/lib/thumb/v6-m/libc.a(lib_a-makebuf.o) (_isatty_r)
/usr/lib/gcc/arm-none-eabi/6.3.1/../../../arm-none-eabi/lib/thumb/v6-m/libc.a(lib_a-iswspace.o)
                              /usr/lib/gcc/arm-none-eabi/6.3.1/../../../arm-none-eabi/lib/thumb/v6-m/libc.a(lib_a-svfiscanf.o) (iswspace)
/usr/lib/gcc/arm-none-eabi/6.3.1/../../../arm-none-eabi/lib/thumb/v6-m/libc.a(lib_a-lseekr.o)
                              /usr/lib/gcc/arm-none-eabi/6.3.1/../../../arm-none-eabi/lib/thumb/v6-m/libc.a(lib_a-stdio.o) (_lseek_r)
/usr/lib/gcc/arm-none-eabi/6.3.1/../../../arm-none-eabi/lib/thumb/v6-m/libc.a(lib_a-mbrtowc.o)
                              /usr/lib/gcc/arm-none-eabi/6.3.1/../../../arm-none-eabi/lib/thumb/v6-m/libc.a(lib_a-svfiscanf.o) (_mbrtowc_r)
/usr/lib/gcc/arm-none-eabi/6.3.1/../../../arm-none-eabi/lib/thumb/v6-m/libc.a(lib_a-mbtowc_r.o)
                              /usr/lib/gcc/arm-none-eabi/6.3.1/../../../arm-none-eabi/lib/thumb/v6-m/libc.a(lib_a-mbrtowc.o) (__mbtowc)
/usr/lib/gcc/arm-none-eabi/6.3.1/../../../arm-none-eabi/lib/thumb/v6-m/libc.a(lib_a-readr.o)
                              /usr/lib/gcc/arm-none-eabi/6.3.1/../../../arm-none-eabi/lib/thumb/v6-m/libc.a(lib_a-stdio.o) (_read_r)
/usr/lib/gcc/arm-none-eabi/6.3.1/../../../arm-none-eabi/lib/thumb/v6-m/libc.a(lib_a-sccl.o)
                              /usr/lib/gcc/arm-none-eabi/6.3.1/../../../arm-none-eabi/lib/thumb/v6-m/libc.a(lib_a-svfiscanf.o) (__sccl)
/usr/lib/gcc/arm-none-eabi/6.3.1/../../../arm-none-eabi/lib/thumb/v6-m/libc.a(lib_a-strtoull_r.o)
                              /usr/lib/gcc/arm-none-eabi/6.3.1/../../../arm-none-eabi/lib/thumb/v6-m/libc.a(lib_a-svfiscanf.o) (_strtoull_r)
/usr/lib/gcc/arm-none-eabi/6.3.1/../../../arm-none-eabi/lib/thumb/v6-m/libc.a(lib_a-wcrtomb.o)
                              /usr/lib/gcc/arm-none-eabi/6.3.1/../../../arm-none-eabi/lib/thumb/v6-m/libc.a(lib_a-fputwc.o) (_wcrtomb_r)
/usr/lib/gcc/arm-none-eabi/6.3.1/../../../arm-none-eabi/lib/thumb/v6-m/libc.a(lib_a-wctomb_r.o)
                              /usr/lib/gcc/arm-none-eabi/6.3.1/../../../arm-none-eabi/lib/thumb/v6-m/libc.a(lib_a-wcrtomb.o) (__wctomb)
/usr/lib/gcc/arm-none-eabi/6.3.1/../../../arm-none-eabi/lib/thumb/v6-m/libnosys.a(close.o)
                              /usr/lib/gcc/arm-none-eabi/6.3.1/../../../arm-none-eabi/lib/thumb/v6-m/libc.a(lib_a-closer.o) (_close)
/usr/lib/gcc/arm-none-eabi/6.3.1/../../../arm-none-eabi/lib/thumb/v6-m/libnosys.a(fstat.o)
                              /usr/lib/gcc/arm-none-eabi/6.3.1/../../../arm-none-eabi/lib/thumb/v6-m/libc.a(lib_a-fstatr.o) (_fstat)
/usr/lib/gcc/arm-none-eabi/6.3.1/../../../arm-none-eabi/lib/thumb/v6-m/libnosys.a(getpid.o)
                              /usr/lib/gcc/arm-none-eabi/6.3.1/../../../arm-none-eabi/lib/thumb/v6-m/libc.a(lib_a-signalr.o) (_getpid)
/usr/lib/gcc/arm-none-eabi/6.3.1/../../../arm-none-eabi/lib/thumb/v6-m/libnosys.a(isatty.o)
                              /usr/lib/gcc/arm-none-eabi/6.3.1/../../../arm-none-eabi/lib/thumb/v6-m/libc.a(lib_a-isattyr.o) (_isatty)
/usr/lib/gcc/arm-none-eabi/6.3.1/../../../arm-none-eabi/lib/thumb/v6-m/libnosys.a(kill.o)
                              /usr/lib/gcc/arm-none-eabi/6.3.1/../../../arm-none-eabi/lib/thumb/v6-m/libc.a(lib_a-signalr.o) (_kill)
/usr/lib/gcc/arm-none-eabi/6.3.1/../../../arm-none-eabi/lib/thumb/v6-m/libnosys.a(lseek.o)
                              /usr/lib/gcc/arm-none-eabi/6.3.1/../../../arm-none-eabi/lib/thumb/v6-m/libc.a(lib_a-lseekr.o) (_lseek)

Allocating common symbols
Common symbol       size              file

sf_table            0x100             CMakeFiles/SPO.dir/mnt/c/study/GRAD/249A/proj/EECS249-Smart-Pill-Organizer/pico-sdk/src/rp2_common/pico_float/float_init_rom.c.obj
recycle_q           0x4               CMakeFiles/SPO.dir/Main.c.obj
next_q              0x4               CMakeFiles/SPO.dir/Main.c.obj
errno               0x4               /usr/lib/gcc/arm-none-eabi/6.3.1/../../../arm-none-eabi/lib/thumb/v6-m/libc.a(lib_a-reent.o)
reaction_q          0x4               CMakeFiles/SPO.dir/Main.c.obj
_lf_startup_reactions
                    0x4               CMakeFiles/SPO.dir/Main.c.obj
event_q             0x4               CMakeFiles/SPO.dir/Main.c.obj
sd_table            0x100             CMakeFiles/SPO.dir/mnt/c/study/GRAD/249A/proj/EECS249-Smart-Pill-Organizer/pico-sdk/src/rp2_common/pico_double/double_init_rom.c.obj
uart_char_to_line_feed
                    0x4               CMakeFiles/SPO.dir/mnt/c/study/GRAD/249A/proj/EECS249-Smart-Pill-Organizer/pico-sdk/src/rp2_common/hardware_uart/uart.c.obj

Discarded input sections

 .text          0x0000000000000000        0x0 /usr/lib/gcc/arm-none-eabi/6.3.1/thumb/v6-m/crti.o
 .data          0x0000000000000000        0x0 /usr/lib/gcc/arm-none-eabi/6.3.1/thumb/v6-m/crti.o
 .bss           0x0000000000000000        0x0 /usr/lib/gcc/arm-none-eabi/6.3.1/thumb/v6-m/crti.o
 .data          0x0000000000000000        0x4 /usr/lib/gcc/arm-none-eabi/6.3.1/thumb/v6-m/crtbegin.o
 .fini_array    0x0000000000000000        0x4 /usr/lib/gcc/arm-none-eabi/6.3.1/thumb/v6-m/crtbegin.o
 .text          0x0000000000000000       0x6c /usr/lib/gcc/arm-none-eabi/6.3.1/../../../arm-none-eabi/lib/thumb/v6-m/crt0.o
 .data          0x0000000000000000        0x0 /usr/lib/gcc/arm-none-eabi/6.3.1/../../../arm-none-eabi/lib/thumb/v6-m/crt0.o
 .bss           0x0000000000000000        0x0 /usr/lib/gcc/arm-none-eabi/6.3.1/../../../arm-none-eabi/lib/thumb/v6-m/crt0.o
 .ARM.extab     0x0000000000000000        0x0 /usr/lib/gcc/arm-none-eabi/6.3.1/../../../arm-none-eabi/lib/thumb/v6-m/crt0.o
 .ARM.exidx     0x0000000000000000        0x8 /usr/lib/gcc/arm-none-eabi/6.3.1/../../../arm-none-eabi/lib/thumb/v6-m/crt0.o
 .debug_line    0x0000000000000000       0x83 /usr/lib/gcc/arm-none-eabi/6.3.1/../../../arm-none-eabi/lib/thumb/v6-m/crt0.o
 .debug_info    0x0000000000000000       0xa3 /usr/lib/gcc/arm-none-eabi/6.3.1/../../../arm-none-eabi/lib/thumb/v6-m/crt0.o
 .debug_abbrev  0x0000000000000000       0x14 /usr/lib/gcc/arm-none-eabi/6.3.1/../../../arm-none-eabi/lib/thumb/v6-m/crt0.o
 .debug_aranges
                0x0000000000000000       0x20 /usr/lib/gcc/arm-none-eabi/6.3.1/../../../arm-none-eabi/lib/thumb/v6-m/crt0.o
 .ARM.attributes
                0x0000000000000000       0x1b /usr/lib/gcc/arm-none-eabi/6.3.1/../../../arm-none-eabi/lib/thumb/v6-m/crt0.o
 .text          0x0000000000000000        0x0 CMakeFiles/SPO.dir/Main.c.obj
 .data          0x0000000000000000        0x0 CMakeFiles/SPO.dir/Main.c.obj
 .bss           0x0000000000000000        0x0 CMakeFiles/SPO.dir/Main.c.obj
 .text.compare_tags
                0x0000000000000000       0x38 CMakeFiles/SPO.dir/Main.c.obj
 .text.delay_tag
                0x0000000000000000       0xa0 CMakeFiles/SPO.dir/Main.c.obj
 .text.get_elapsed_logical_time
                0x0000000000000000       0x1c CMakeFiles/SPO.dir/Main.c.obj
 .text.get_current_tag
                0x0000000000000000       0x14 CMakeFiles/SPO.dir/Main.c.obj
 .text.get_logical_time
                0x0000000000000000        0xc CMakeFiles/SPO.dir/Main.c.obj
 .text.get_microstep
                0x0000000000000000        0xc CMakeFiles/SPO.dir/Main.c.obj
 .text.get_start_time
                0x0000000000000000        0xc CMakeFiles/SPO.dir/Main.c.obj
 .text.set_physical_clock_offset
                0x0000000000000000       0x18 CMakeFiles/SPO.dir/Main.c.obj
 .text.lf_readable_time
                0x0000000000000000      0x36c CMakeFiles/SPO.dir/Main.c.obj
 .text.convert_volatile_tag_to_nonvolatile
                0x0000000000000000       0x1c CMakeFiles/SPO.dir/Main.c.obj
 .text.pqueue_init
                0x0000000000000000       0x54 CMakeFiles/SPO.dir/Main.c.obj
 .text.pqueue_free
                0x0000000000000000       0x14 CMakeFiles/SPO.dir/Main.c.obj
 .text.pqueue_size
                0x0000000000000000        0x8 CMakeFiles/SPO.dir/Main.c.obj
 .text.pqueue_insert
                0x0000000000000000       0x44 CMakeFiles/SPO.dir/Main.c.obj
 .text.pqueue_remove
                0x0000000000000000       0x68 CMakeFiles/SPO.dir/Main.c.obj
 .text.pqueue_pop
                0x0000000000000000       0x28 CMakeFiles/SPO.dir/Main.c.obj
 .text.pqueue_peek
                0x0000000000000000       0x14 CMakeFiles/SPO.dir/Main.c.obj
 .text.pqueue_dump
                0x0000000000000000       0x20 CMakeFiles/SPO.dir/Main.c.obj
 .text.pqueue_print
                0x0000000000000000       0xcc CMakeFiles/SPO.dir/Main.c.obj
 .text.get_fed_id
                0x0000000000000000        0xc CMakeFiles/SPO.dir/Main.c.obj
 .text.log_print
                0x0000000000000000       0x9c CMakeFiles/SPO.dir/Main.c.obj
 .text.debug_print
                0x0000000000000000       0x9c CMakeFiles/SPO.dir/Main.c.obj
 .text.get_physical_time
                0x0000000000000000       0x60 CMakeFiles/SPO.dir/Main.c.obj
 .text.get_elapsed_physical_time
                0x0000000000000000       0x70 CMakeFiles/SPO.dir/Main.c.obj
 .text.find_equal
                0x0000000000000000       0x88 CMakeFiles/SPO.dir/Main.c.obj
 .text.pqueue_find_equal
                0x0000000000000000       0x14 CMakeFiles/SPO.dir/Main.c.obj
 .text.pqueue_find_equal_same_priority
                0x0000000000000000        0xc CMakeFiles/SPO.dir/Main.c.obj
 .text.subtree_is_valid
                0x0000000000000000       0xb0 CMakeFiles/SPO.dir/Main.c.obj
 .text.pqueue_is_valid
                0x0000000000000000       0x88 CMakeFiles/SPO.dir/Main.c.obj
 .text.register_print_function
                0x0000000000000000       0x14 CMakeFiles/SPO.dir/Main.c.obj
 .text._lf_set_stop_tag
                0x0000000000000000       0x50 CMakeFiles/SPO.dir/Main.c.obj
 .text.get_stp_offset
                0x0000000000000000        0xc CMakeFiles/SPO.dir/Main.c.obj
 .text.set_stp_offset
                0x0000000000000000       0x18 CMakeFiles/SPO.dir/Main.c.obj
 .text._lf_done_using
                0x0000000000000000       0x84 CMakeFiles/SPO.dir/Main.c.obj
 .text._lf_create_token
                0x0000000000000000       0x38 CMakeFiles/SPO.dir/Main.c.obj
 .text.create_token
                0x0000000000000000       0x48 CMakeFiles/SPO.dir/Main.c.obj
 .text._lf_initialize_token_with_value
                0x0000000000000000       0x58 CMakeFiles/SPO.dir/Main.c.obj
 .text._lf_initialize_token
                0x0000000000000000       0x70 CMakeFiles/SPO.dir/Main.c.obj
 .text._lf_is_tag_after_stop_tag
                0x0000000000000000       0x3c CMakeFiles/SPO.dir/Main.c.obj
 .text._lf_initialize_timer
                0x0000000000000000      0x13c CMakeFiles/SPO.dir/Main.c.obj
 .text._lf_get_new_event
                0x0000000000000000       0x3c CMakeFiles/SPO.dir/Main.c.obj
 .text._lf_recycle_event
                0x0000000000000000       0x64 CMakeFiles/SPO.dir/Main.c.obj
 .text._lf_create_dummy_events
                0x0000000000000000       0xcc CMakeFiles/SPO.dir/Main.c.obj
 .text._lf_replace_token
                0x0000000000000000       0x84 CMakeFiles/SPO.dir/Main.c.obj
 .text._lf_schedule_at_tag
                0x0000000000000000      0x58c CMakeFiles/SPO.dir/Main.c.obj
 .text._lf_schedule
                0x0000000000000000      0x670 CMakeFiles/SPO.dir/Main.c.obj
 .text._lf_insert_reactions_for_trigger
                0x0000000000000000      0x1d0 CMakeFiles/SPO.dir/Main.c.obj
 .text._lf_action_to_trigger
                0x0000000000000000        0x4 CMakeFiles/SPO.dir/Main.c.obj
 .text._lf_advance_logical_time
                0x0000000000000000       0x3c CMakeFiles/SPO.dir/Main.c.obj
 .text._lf_schedule_int
                0x0000000000000000       0x8c CMakeFiles/SPO.dir/Main.c.obj
 .text._lf_set_new_array_impl
                0x0000000000000000       0x90 CMakeFiles/SPO.dir/Main.c.obj
 .text.schedule_output_reactions
                0x0000000000000000       0x10 CMakeFiles/SPO.dir/Main.c.obj
 .text.writable_copy
                0x0000000000000000       0x7c CMakeFiles/SPO.dir/Main.c.obj
 .text._lf_schedule_token
                0x0000000000000000      0x680 CMakeFiles/SPO.dir/Main.c.obj
 .text._lf_schedule_value
                0x0000000000000000       0x64 CMakeFiles/SPO.dir/Main.c.obj
 .text._lf_schedule_copy
                0x0000000000000000       0xd4 CMakeFiles/SPO.dir/Main.c.obj
 .text._lf_set_present
                0x0000000000000000       0x2c CMakeFiles/SPO.dir/Main.c.obj
 .text.wait_until
                0x0000000000000000       0x8c CMakeFiles/SPO.dir/Main.c.obj
 .text.print_snapshot
                0x0000000000000000        0x4 CMakeFiles/SPO.dir/Main.c.obj
 .text._lf_enqueue_reaction
                0x0000000000000000       0x50 CMakeFiles/SPO.dir/Main.c.obj
 .text.request_stop
                0x0000000000000000       0x58 CMakeFiles/SPO.dir/Main.c.obj
 .text._lf_notify_workers
                0x0000000000000000        0x4 CMakeFiles/SPO.dir/Main.c.obj
 .text._lf_is_blocked_by_executing_reaction
                0x0000000000000000        0x4 CMakeFiles/SPO.dir/Main.c.obj
 .text.new_Main
                0x0000000000000000       0x3c CMakeFiles/SPO.dir/Main.c.obj
 .text.delete_Main
                0x0000000000000000       0x44 CMakeFiles/SPO.dir/Main.c.obj
 .text._lf_set_default_command_line_options
                0x0000000000000000        0x4 CMakeFiles/SPO.dir/Main.c.obj
 .text._lf_action_for_port
                0x0000000000000000        0x4 CMakeFiles/SPO.dir/Main.c.obj
 .text._lf_initialize_trigger_objects
                0x0000000000000000       0x64 CMakeFiles/SPO.dir/Main.c.obj
 .text._lf_trigger_startup_reactions
                0x0000000000000000       0x68 CMakeFiles/SPO.dir/Main.c.obj
 .text._lf_initialize_timers
                0x0000000000000000        0x4 CMakeFiles/SPO.dir/Main.c.obj
 .text.logical_tag_complete
                0x0000000000000000        0x8 CMakeFiles/SPO.dir/Main.c.obj
 .text._lf_trigger_shutdown_reactions
                0x0000000000000000       0xb0 CMakeFiles/SPO.dir/Main.c.obj
 .text.terminate_execution
                0x0000000000000000        0x4 CMakeFiles/SPO.dir/Main.c.obj
 .bss._lf_global_physical_clock_drift
                0x0000000000000000        0x8 CMakeFiles/SPO.dir/Main.c.obj
 .bss._lf_global_time_STP_offset
                0x0000000000000000        0x8 CMakeFiles/SPO.dir/Main.c.obj
 .bss._lf_intended_tag_fields
                0x0000000000000000        0x4 CMakeFiles/SPO.dir/Main.c.obj
 .bss._lf_intended_tag_fields_size
                0x0000000000000000        0x4 CMakeFiles/SPO.dir/Main.c.obj
 .bss._lf_timer_triggers
                0x0000000000000000        0x4 CMakeFiles/SPO.dir/Main.c.obj
 .bss._lf_timer_triggers_size
                0x0000000000000000        0x4 CMakeFiles/SPO.dir/Main.c.obj
 .rodata.LED_PIN
                0x0000000000000000        0x4 CMakeFiles/SPO.dir/Main.c.obj
 .rodata._lf_insert_reactions_for_trigger.str1.4
                0x0000000000000000       0x80 CMakeFiles/SPO.dir/Main.c.obj
 .rodata._lf_schedule.str1.4
                0x0000000000000000       0x47 CMakeFiles/SPO.dir/Main.c.obj
 .rodata._lf_schedule_at_tag.str1.4
                0x0000000000000000       0xbf CMakeFiles/SPO.dir/Main.c.obj
 .rodata._lf_schedule_copy.str1.4
                0x0000000000000000       0x2b CMakeFiles/SPO.dir/Main.c.obj
 .rodata._lf_schedule_int.str1.4
                0x0000000000000000       0x1f CMakeFiles/SPO.dir/Main.c.obj
 .rodata._lf_set_new_array_impl.str1.4
                0x0000000000000000       0x50 CMakeFiles/SPO.dir/Main.c.obj
 .rodata.debug_print.str1.4
                0x0000000000000000        0x8 CMakeFiles/SPO.dir/Main.c.obj
 .rodata.find_equal.str1.4
                0x0000000000000000       0x2f CMakeFiles/SPO.dir/Main.c.obj
 .rodata.lf_readable_time.str1.4
                0x0000000000000000       0x64 CMakeFiles/SPO.dir/Main.c.obj
 .rodata.log_print.str1.4
                0x0000000000000000        0x6 CMakeFiles/SPO.dir/Main.c.obj
 .rodata.subtree_is_valid.str1.4
                0x0000000000000000       0x65 CMakeFiles/SPO.dir/Main.c.obj
 .text          0x0000000000000000        0x0 CMakeFiles/SPO.dir/core/platform/lf_pico_support.c.obj
 .data          0x0000000000000000        0x0 CMakeFiles/SPO.dir/core/platform/lf_pico_support.c.obj
 .bss           0x0000000000000000        0x0 CMakeFiles/SPO.dir/core/platform/lf_pico_support.c.obj
 .text          0x0000000000000000        0x0 CMakeFiles/SPO.dir/ctarget.c.obj
 .data          0x0000000000000000        0x0 CMakeFiles/SPO.dir/ctarget.c.obj
 .bss           0x0000000000000000        0x0 CMakeFiles/SPO.dir/ctarget.c.obj
 .text.schedule
                0x0000000000000000       0x10 CMakeFiles/SPO.dir/ctarget.c.obj
 .text.schedule_int
                0x0000000000000000       0x10 CMakeFiles/SPO.dir/ctarget.c.obj
 .text.schedule_token
                0x0000000000000000       0x10 CMakeFiles/SPO.dir/ctarget.c.obj
 .text.schedule_copy
                0x0000000000000000       0x28 CMakeFiles/SPO.dir/ctarget.c.obj
 .text.schedule_value
                0x0000000000000000       0x28 CMakeFiles/SPO.dir/ctarget.c.obj
 .rodata.schedule_copy.str1.4
                0x0000000000000000       0x4f CMakeFiles/SPO.dir/ctarget.c.obj
 .rodata.schedule_value.str1.4
                0x0000000000000000       0x67 CMakeFiles/SPO.dir/ctarget.c.obj
 .comment       0x0000000000000000       0x32 CMakeFiles/SPO.dir/ctarget.c.obj
 .ARM.attributes
                0x0000000000000000       0x32 CMakeFiles/SPO.dir/ctarget.c.obj
 .text          0x0000000000000000        0x0 CMakeFiles/SPO.dir/mnt/c/study/GRAD/249A/proj/EECS249-Smart-Pill-Organizer/pico-sdk/src/rp2_common/pico_stdlib/stdlib.c.obj
 .data          0x0000000000000000        0x0 CMakeFiles/SPO.dir/mnt/c/study/GRAD/249A/proj/EECS249-Smart-Pill-Organizer/pico-sdk/src/rp2_common/pico_stdlib/stdlib.c.obj
 .bss           0x0000000000000000        0x0 CMakeFiles/SPO.dir/mnt/c/study/GRAD/249A/proj/EECS249-Smart-Pill-Organizer/pico-sdk/src/rp2_common/pico_stdlib/stdlib.c.obj
 .text.set_sys_clock_48mhz
                0x0000000000000000       0x3c CMakeFiles/SPO.dir/mnt/c/study/GRAD/249A/proj/EECS249-Smart-Pill-Organizer/pico-sdk/src/rp2_common/pico_stdlib/stdlib.c.obj
 .text.set_sys_clock_pll
                0x0000000000000000       0x78 CMakeFiles/SPO.dir/mnt/c/study/GRAD/249A/proj/EECS249-Smart-Pill-Organizer/pico-sdk/src/rp2_common/pico_stdlib/stdlib.c.obj
 .text.check_sys_clock_khz
                0x0000000000000000       0xc0 CMakeFiles/SPO.dir/mnt/c/study/GRAD/249A/proj/EECS249-Smart-Pill-Organizer/pico-sdk/src/rp2_common/pico_stdlib/stdlib.c.obj
 .text.setup_default_uart
                0x0000000000000000        0x8 CMakeFiles/SPO.dir/mnt/c/study/GRAD/249A/proj/EECS249-Smart-Pill-Organizer/pico-sdk/src/rp2_common/pico_stdlib/stdlib.c.obj
 .comment       0x0000000000000000       0x32 CMakeFiles/SPO.dir/mnt/c/study/GRAD/249A/proj/EECS249-Smart-Pill-Organizer/pico-sdk/src/rp2_common/pico_stdlib/stdlib.c.obj
 .ARM.attributes
                0x0000000000000000       0x32 CMakeFiles/SPO.dir/mnt/c/study/GRAD/249A/proj/EECS249-Smart-Pill-Organizer/pico-sdk/src/rp2_common/pico_stdlib/stdlib.c.obj
 .text          0x0000000000000000        0x0 CMakeFiles/SPO.dir/mnt/c/study/GRAD/249A/proj/EECS249-Smart-Pill-Organizer/pico-sdk/src/rp2_common/hardware_gpio/gpio.c.obj
 .data          0x0000000000000000        0x0 CMakeFiles/SPO.dir/mnt/c/study/GRAD/249A/proj/EECS249-Smart-Pill-Organizer/pico-sdk/src/rp2_common/hardware_gpio/gpio.c.obj
 .bss           0x0000000000000000        0x0 CMakeFiles/SPO.dir/mnt/c/study/GRAD/249A/proj/EECS249-Smart-Pill-Organizer/pico-sdk/src/rp2_common/hardware_gpio/gpio.c.obj
 .text.gpio_irq_handler
                0x0000000000000000       0x74 CMakeFiles/SPO.dir/mnt/c/study/GRAD/249A/proj/EECS249-Smart-Pill-Organizer/pico-sdk/src/rp2_common/hardware_gpio/gpio.c.obj
 .text.gpio_get_pad
                0x0000000000000000       0x28 CMakeFiles/SPO.dir/mnt/c/study/GRAD/249A/proj/EECS249-Smart-Pill-Organizer/pico-sdk/src/rp2_common/hardware_gpio/gpio.c.obj
 .text.gpio_get_function
                0x0000000000000000       0x14 CMakeFiles/SPO.dir/mnt/c/study/GRAD/249A/proj/EECS249-Smart-Pill-Organizer/pico-sdk/src/rp2_common/hardware_gpio/gpio.c.obj
 .text.gpio_set_pulls
                0x0000000000000000       0x34 CMakeFiles/SPO.dir/mnt/c/study/GRAD/249A/proj/EECS249-Smart-Pill-Organizer/pico-sdk/src/rp2_common/hardware_gpio/gpio.c.obj
 .text.gpio_set_irqover
                0x0000000000000000       0x24 CMakeFiles/SPO.dir/mnt/c/study/GRAD/249A/proj/EECS249-Smart-Pill-Organizer/pico-sdk/src/rp2_common/hardware_gpio/gpio.c.obj
 .text.gpio_set_inover
                0x0000000000000000       0x24 CMakeFiles/SPO.dir/mnt/c/study/GRAD/249A/proj/EECS249-Smart-Pill-Organizer/pico-sdk/src/rp2_common/hardware_gpio/gpio.c.obj
 .text.gpio_set_outover
                0x0000000000000000       0x24 CMakeFiles/SPO.dir/mnt/c/study/GRAD/249A/proj/EECS249-Smart-Pill-Organizer/pico-sdk/src/rp2_common/hardware_gpio/gpio.c.obj
 .text.gpio_set_oeover
                0x0000000000000000       0x24 CMakeFiles/SPO.dir/mnt/c/study/GRAD/249A/proj/EECS249-Smart-Pill-Organizer/pico-sdk/src/rp2_common/hardware_gpio/gpio.c.obj
 .text.gpio_set_input_hysteresis_enabled
                0x0000000000000000       0x28 CMakeFiles/SPO.dir/mnt/c/study/GRAD/249A/proj/EECS249-Smart-Pill-Organizer/pico-sdk/src/rp2_common/hardware_gpio/gpio.c.obj
 .text.gpio_is_input_hysteresis_enabled
                0x0000000000000000       0x14 CMakeFiles/SPO.dir/mnt/c/study/GRAD/249A/proj/EECS249-Smart-Pill-Organizer/pico-sdk/src/rp2_common/hardware_gpio/gpio.c.obj
 .text.gpio_set_slew_rate
                0x0000000000000000       0x20 CMakeFiles/SPO.dir/mnt/c/study/GRAD/249A/proj/EECS249-Smart-Pill-Organizer/pico-sdk/src/rp2_common/hardware_gpio/gpio.c.obj
 .text.gpio_get_slew_rate
                0x0000000000000000       0x14 CMakeFiles/SPO.dir/mnt/c/study/GRAD/249A/proj/EECS249-Smart-Pill-Organizer/pico-sdk/src/rp2_common/hardware_gpio/gpio.c.obj
 .text.gpio_set_drive_strength
                0x0000000000000000       0x20 CMakeFiles/SPO.dir/mnt/c/study/GRAD/249A/proj/EECS249-Smart-Pill-Organizer/pico-sdk/src/rp2_common/hardware_gpio/gpio.c.obj
 .text.gpio_get_drive_strength
                0x0000000000000000       0x14 CMakeFiles/SPO.dir/mnt/c/study/GRAD/249A/proj/EECS249-Smart-Pill-Organizer/pico-sdk/src/rp2_common/hardware_gpio/gpio.c.obj
 .text.gpio_set_irq_enabled
                0x0000000000000000       0x50 CMakeFiles/SPO.dir/mnt/c/study/GRAD/249A/proj/EECS249-Smart-Pill-Organizer/pico-sdk/src/rp2_common/hardware_gpio/gpio.c.obj
 .text.gpio_set_irq_enabled_with_callback
                0x0000000000000000       0x74 CMakeFiles/SPO.dir/mnt/c/study/GRAD/249A/proj/EECS249-Smart-Pill-Organizer/pico-sdk/src/rp2_common/hardware_gpio/gpio.c.obj
 .text.gpio_set_dormant_irq_enabled
                0x0000000000000000       0x40 CMakeFiles/SPO.dir/mnt/c/study/GRAD/249A/proj/EECS249-Smart-Pill-Organizer/pico-sdk/src/rp2_common/hardware_gpio/gpio.c.obj
 .text.gpio_acknowledge_irq
                0x0000000000000000       0x18 CMakeFiles/SPO.dir/mnt/c/study/GRAD/249A/proj/EECS249-Smart-Pill-Organizer/pico-sdk/src/rp2_common/hardware_gpio/gpio.c.obj
 .text.gpio_debug_pins_init
                0x0000000000000000       0x84 CMakeFiles/SPO.dir/mnt/c/study/GRAD/249A/proj/EECS249-Smart-Pill-Organizer/pico-sdk/src/rp2_common/hardware_gpio/gpio.c.obj
 .text.gpio_set_input_enabled
                0x0000000000000000       0x28 CMakeFiles/SPO.dir/mnt/c/study/GRAD/249A/proj/EECS249-Smart-Pill-Organizer/pico-sdk/src/rp2_common/hardware_gpio/gpio.c.obj
 .text.gpio_init_mask
                0x0000000000000000       0x68 CMakeFiles/SPO.dir/mnt/c/study/GRAD/249A/proj/EECS249-Smart-Pill-Organizer/pico-sdk/src/rp2_common/hardware_gpio/gpio.c.obj
 .bss._callbacks
                0x0000000000000000        0x8 CMakeFiles/SPO.dir/mnt/c/study/GRAD/249A/proj/EECS249-Smart-Pill-Organizer/pico-sdk/src/rp2_common/hardware_gpio/gpio.c.obj
 .text          0x0000000000000000        0x0 CMakeFiles/SPO.dir/mnt/c/study/GRAD/249A/proj/EECS249-Smart-Pill-Organizer/pico-sdk/src/rp2_common/hardware_claim/claim.c.obj
 .data          0x0000000000000000        0x0 CMakeFiles/SPO.dir/mnt/c/study/GRAD/249A/proj/EECS249-Smart-Pill-Organizer/pico-sdk/src/rp2_common/hardware_claim/claim.c.obj
 .bss           0x0000000000000000        0x0 CMakeFiles/SPO.dir/mnt/c/study/GRAD/249A/proj/EECS249-Smart-Pill-Organizer/pico-sdk/src/rp2_common/hardware_claim/claim.c.obj
 .text.hw_claim_lock
                0x0000000000000000       0x18 CMakeFiles/SPO.dir/mnt/c/study/GRAD/249A/proj/EECS249-Smart-Pill-Organizer/pico-sdk/src/rp2_common/hardware_claim/claim.c.obj
 .text.hw_claim_unlock
                0x0000000000000000       0x14 CMakeFiles/SPO.dir/mnt/c/study/GRAD/249A/proj/EECS249-Smart-Pill-Organizer/pico-sdk/src/rp2_common/hardware_claim/claim.c.obj
 .text.hw_is_claimed
                0x0000000000000000       0x18 CMakeFiles/SPO.dir/mnt/c/study/GRAD/249A/proj/EECS249-Smart-Pill-Organizer/pico-sdk/src/rp2_common/hardware_claim/claim.c.obj
 .text.hw_claim_unused_from_range
                0x0000000000000000       0x8c CMakeFiles/SPO.dir/mnt/c/study/GRAD/249A/proj/EECS249-Smart-Pill-Organizer/pico-sdk/src/rp2_common/hardware_claim/claim.c.obj
 .text.hw_claim_clear
                0x0000000000000000       0x38 CMakeFiles/SPO.dir/mnt/c/study/GRAD/249A/proj/EECS249-Smart-Pill-Organizer/pico-sdk/src/rp2_common/hardware_claim/claim.c.obj
 .text          0x0000000000000000        0x0 CMakeFiles/SPO.dir/mnt/c/study/GRAD/249A/proj/EECS249-Smart-Pill-Organizer/pico-sdk/src/rp2_common/pico_platform/platform.c.obj
 .data          0x0000000000000000        0x0 CMakeFiles/SPO.dir/mnt/c/study/GRAD/249A/proj/EECS249-Smart-Pill-Organizer/pico-sdk/src/rp2_common/pico_platform/platform.c.obj
 .bss           0x0000000000000000        0x0 CMakeFiles/SPO.dir/mnt/c/study/GRAD/249A/proj/EECS249-Smart-Pill-Organizer/pico-sdk/src/rp2_common/pico_platform/platform.c.obj
 .text.rp2040_chip_version
                0x0000000000000000        0xc CMakeFiles/SPO.dir/mnt/c/study/GRAD/249A/proj/EECS249-Smart-Pill-Organizer/pico-sdk/src/rp2_common/pico_platform/platform.c.obj
 .text          0x0000000000000000        0x0 CMakeFiles/SPO.dir/mnt/c/study/GRAD/249A/proj/EECS249-Smart-Pill-Organizer/pico-sdk/src/rp2_common/hardware_sync/sync.c.obj
 .data          0x0000000000000000        0x0 CMakeFiles/SPO.dir/mnt/c/study/GRAD/249A/proj/EECS249-Smart-Pill-Organizer/pico-sdk/src/rp2_common/hardware_sync/sync.c.obj
 .bss           0x0000000000000000        0x0 CMakeFiles/SPO.dir/mnt/c/study/GRAD/249A/proj/EECS249-Smart-Pill-Organizer/pico-sdk/src/rp2_common/hardware_sync/sync.c.obj
 .text.spin_lock_init
                0x0000000000000000       0x18 CMakeFiles/SPO.dir/mnt/c/study/GRAD/249A/proj/EECS249-Smart-Pill-Organizer/pico-sdk/src/rp2_common/hardware_sync/sync.c.obj
 .text.spin_lock_claim
                0x0000000000000000       0x18 CMakeFiles/SPO.dir/mnt/c/study/GRAD/249A/proj/EECS249-Smart-Pill-Organizer/pico-sdk/src/rp2_common/hardware_sync/sync.c.obj
 .text.spin_lock_claim_mask
                0x0000000000000000       0x40 CMakeFiles/SPO.dir/mnt/c/study/GRAD/249A/proj/EECS249-Smart-Pill-Organizer/pico-sdk/src/rp2_common/hardware_sync/sync.c.obj
 .text.spin_lock_unclaim
                0x0000000000000000       0x24 CMakeFiles/SPO.dir/mnt/c/study/GRAD/249A/proj/EECS249-Smart-Pill-Organizer/pico-sdk/src/rp2_common/hardware_sync/sync.c.obj
 .text.spin_lock_claim_unused
                0x0000000000000000       0x20 CMakeFiles/SPO.dir/mnt/c/study/GRAD/249A/proj/EECS249-Smart-Pill-Organizer/pico-sdk/src/rp2_common/hardware_sync/sync.c.obj
 .text.spin_lock_is_claimed
                0x0000000000000000       0x10 CMakeFiles/SPO.dir/mnt/c/study/GRAD/249A/proj/EECS249-Smart-Pill-Organizer/pico-sdk/src/rp2_common/hardware_sync/sync.c.obj
 .bss.claimed   0x0000000000000000        0x4 CMakeFiles/SPO.dir/mnt/c/study/GRAD/249A/proj/EECS249-Smart-Pill-Organizer/pico-sdk/src/rp2_common/hardware_sync/sync.c.obj
 .rodata.spin_lock_claim.str1.4
                0x0000000000000000       0x1f CMakeFiles/SPO.dir/mnt/c/study/GRAD/249A/proj/EECS249-Smart-Pill-Organizer/pico-sdk/src/rp2_common/hardware_sync/sync.c.obj
 .rodata.spin_lock_claim_unused.str1.4
                0x0000000000000000       0x1b CMakeFiles/SPO.dir/mnt/c/study/GRAD/249A/proj/EECS249-Smart-Pill-Organizer/pico-sdk/src/rp2_common/hardware_sync/sync.c.obj
 .text          0x0000000000000000        0x0 CMakeFiles/SPO.dir/mnt/c/study/GRAD/249A/proj/EECS249-Smart-Pill-Organizer/pico-sdk/src/rp2_common/hardware_uart/uart.c.obj
 .data          0x0000000000000000        0x0 CMakeFiles/SPO.dir/mnt/c/study/GRAD/249A/proj/EECS249-Smart-Pill-Organizer/pico-sdk/src/rp2_common/hardware_uart/uart.c.obj
 .bss           0x0000000000000000        0x0 CMakeFiles/SPO.dir/mnt/c/study/GRAD/249A/proj/EECS249-Smart-Pill-Organizer/pico-sdk/src/rp2_common/hardware_uart/uart.c.obj
 .text.uart_deinit
                0x0000000000000000       0x1c CMakeFiles/SPO.dir/mnt/c/study/GRAD/249A/proj/EECS249-Smart-Pill-Organizer/pico-sdk/src/rp2_common/hardware_uart/uart.c.obj
 .text.uart_set_baudrate
                0x0000000000000000       0x68 CMakeFiles/SPO.dir/mnt/c/study/GRAD/249A/proj/EECS249-Smart-Pill-Organizer/pico-sdk/src/rp2_common/hardware_uart/uart.c.obj
 .text.uart_set_translate_crlf
                0x0000000000000000       0x24 CMakeFiles/SPO.dir/mnt/c/study/GRAD/249A/proj/EECS249-Smart-Pill-Organizer/pico-sdk/src/rp2_common/hardware_uart/uart.c.obj
 .text.uart_is_readable_within_us
                0x0000000000000000       0x24 CMakeFiles/SPO.dir/mnt/c/study/GRAD/249A/proj/EECS249-Smart-Pill-Organizer/pico-sdk/src/rp2_common/hardware_uart/uart.c.obj
 .text          0x0000000000000000        0x0 CMakeFiles/SPO.dir/mnt/c/study/GRAD/249A/proj/EECS249-Smart-Pill-Organizer/pico-sdk/src/rp2_common/hardware_divider/divider.S.obj
 .data          0x0000000000000000        0x0 CMakeFiles/SPO.dir/mnt/c/study/GRAD/249A/proj/EECS249-Smart-Pill-Organizer/pico-sdk/src/rp2_common/hardware_divider/divider.S.obj
 .bss           0x0000000000000000        0x0 CMakeFiles/SPO.dir/mnt/c/study/GRAD/249A/proj/EECS249-Smart-Pill-Organizer/pico-sdk/src/rp2_common/hardware_divider/divider.S.obj
 .text.hw_divider_divmod_s32
                0x0000000000000000       0x18 CMakeFiles/SPO.dir/mnt/c/study/GRAD/249A/proj/EECS249-Smart-Pill-Organizer/pico-sdk/src/rp2_common/hardware_divider/divider.S.obj
 .text.hw_divider_divmod_u32
                0x0000000000000000       0x18 CMakeFiles/SPO.dir/mnt/c/study/GRAD/249A/proj/EECS249-Smart-Pill-Organizer/pico-sdk/src/rp2_common/hardware_divider/divider.S.obj
 .text.hw_divider_save_state
                0x0000000000000000       0x1c CMakeFiles/SPO.dir/mnt/c/study/GRAD/249A/proj/EECS249-Smart-Pill-Organizer/pico-sdk/src/rp2_common/hardware_divider/divider.S.obj
 .text.hw_divider_restore_state
                0x0000000000000000       0x14 CMakeFiles/SPO.dir/mnt/c/study/GRAD/249A/proj/EECS249-Smart-Pill-Organizer/pico-sdk/src/rp2_common/hardware_divider/divider.S.obj
 .ARM.attributes
                0x0000000000000000       0x22 CMakeFiles/SPO.dir/mnt/c/study/GRAD/249A/proj/EECS249-Smart-Pill-Organizer/pico-sdk/src/rp2_common/hardware_divider/divider.S.obj
 .text          0x0000000000000000        0x0 CMakeFiles/SPO.dir/mnt/c/study/GRAD/249A/proj/EECS249-Smart-Pill-Organizer/pico-sdk/src/common/pico_time/time.c.obj
 .data          0x0000000000000000        0x0 CMakeFiles/SPO.dir/mnt/c/study/GRAD/249A/proj/EECS249-Smart-Pill-Organizer/pico-sdk/src/common/pico_time/time.c.obj
 .bss           0x0000000000000000        0x0 CMakeFiles/SPO.dir/mnt/c/study/GRAD/249A/proj/EECS249-Smart-Pill-Organizer/pico-sdk/src/common/pico_time/time.c.obj
 .text.repeating_timer_callback
                0x0000000000000000       0x1c CMakeFiles/SPO.dir/mnt/c/study/GRAD/249A/proj/EECS249-Smart-Pill-Organizer/pico-sdk/src/common/pico_time/time.c.obj
 .text.alarm_pool_dump_key
                0x0000000000000000       0x34 CMakeFiles/SPO.dir/mnt/c/study/GRAD/249A/proj/EECS249-Smart-Pill-Organizer/pico-sdk/src/common/pico_time/time.c.obj
 .text.alarm_pool_get_default
                0x0000000000000000        0x8 CMakeFiles/SPO.dir/mnt/c/study/GRAD/249A/proj/EECS249-Smart-Pill-Organizer/pico-sdk/src/common/pico_time/time.c.obj
 .text.alarm_pool_create
                0x0000000000000000       0x6c CMakeFiles/SPO.dir/mnt/c/study/GRAD/249A/proj/EECS249-Smart-Pill-Organizer/pico-sdk/src/common/pico_time/time.c.obj
 .text.alarm_pool_destroy
                0x0000000000000000       0x44 CMakeFiles/SPO.dir/mnt/c/study/GRAD/249A/proj/EECS249-Smart-Pill-Organizer/pico-sdk/src/common/pico_time/time.c.obj
 .text.alarm_pool_add_alarm_at
                0x0000000000000000      0x1a0 CMakeFiles/SPO.dir/mnt/c/study/GRAD/249A/proj/EECS249-Smart-Pill-Organizer/pico-sdk/src/common/pico_time/time.c.obj
 .text.alarm_pool_cancel_alarm
                0x0000000000000000       0x74 CMakeFiles/SPO.dir/mnt/c/study/GRAD/249A/proj/EECS249-Smart-Pill-Organizer/pico-sdk/src/common/pico_time/time.c.obj
 .text.alarm_pool_hardware_alarm_num
                0x0000000000000000        0x4 CMakeFiles/SPO.dir/mnt/c/study/GRAD/249A/proj/EECS249-Smart-Pill-Organizer/pico-sdk/src/common/pico_time/time.c.obj
 .text.alarm_pool_add_repeating_timer_us
                0x0000000000000000      0x20c CMakeFiles/SPO.dir/mnt/c/study/GRAD/249A/proj/EECS249-Smart-Pill-Organizer/pico-sdk/src/common/pico_time/time.c.obj
 .text.cancel_repeating_timer
                0x0000000000000000       0x88 CMakeFiles/SPO.dir/mnt/c/study/GRAD/249A/proj/EECS249-Smart-Pill-Organizer/pico-sdk/src/common/pico_time/time.c.obj
 .text.alarm_pool_dump
                0x0000000000000000       0x34 CMakeFiles/SPO.dir/mnt/c/study/GRAD/249A/proj/EECS249-Smart-Pill-Organizer/pico-sdk/src/common/pico_time/time.c.obj
 .text.best_effort_wfe_or_timeout
                0x0000000000000000      0x1c8 CMakeFiles/SPO.dir/mnt/c/study/GRAD/249A/proj/EECS249-Smart-Pill-Organizer/pico-sdk/src/common/pico_time/time.c.obj
 .rodata.alarm_pool_dump_key.str1.4
                0x0000000000000000        0xf CMakeFiles/SPO.dir/mnt/c/study/GRAD/249A/proj/EECS249-Smart-Pill-Organizer/pico-sdk/src/common/pico_time/time.c.obj
 .rodata.nil_time
                0x0000000000000000        0x8 CMakeFiles/SPO.dir/mnt/c/study/GRAD/249A/proj/EECS249-Smart-Pill-Organizer/pico-sdk/src/common/pico_time/time.c.obj
 .text          0x0000000000000000        0x0 CMakeFiles/SPO.dir/mnt/c/study/GRAD/249A/proj/EECS249-Smart-Pill-Organizer/pico-sdk/src/common/pico_time/timeout_helper.c.obj
 .data          0x0000000000000000        0x0 CMakeFiles/SPO.dir/mnt/c/study/GRAD/249A/proj/EECS249-Smart-Pill-Organizer/pico-sdk/src/common/pico_time/timeout_helper.c.obj
 .bss           0x0000000000000000        0x0 CMakeFiles/SPO.dir/mnt/c/study/GRAD/249A/proj/EECS249-Smart-Pill-Organizer/pico-sdk/src/common/pico_time/timeout_helper.c.obj
 .text.check_single_timeout_us
                0x0000000000000000       0x28 CMakeFiles/SPO.dir/mnt/c/study/GRAD/249A/proj/EECS249-Smart-Pill-Organizer/pico-sdk/src/common/pico_time/timeout_helper.c.obj
 .text.check_per_iteration_timeout_us
                0x0000000000000000       0x4c CMakeFiles/SPO.dir/mnt/c/study/GRAD/249A/proj/EECS249-Smart-Pill-Organizer/pico-sdk/src/common/pico_time/timeout_helper.c.obj
 .text.init_single_timeout_until
                0x0000000000000000        0xc CMakeFiles/SPO.dir/mnt/c/study/GRAD/249A/proj/EECS249-Smart-Pill-Organizer/pico-sdk/src/common/pico_time/timeout_helper.c.obj
 .text.init_per_iteration_timeout_us
                0x0000000000000000       0x38 CMakeFiles/SPO.dir/mnt/c/study/GRAD/249A/proj/EECS249-Smart-Pill-Organizer/pico-sdk/src/common/pico_time/timeout_helper.c.obj
 .comment       0x0000000000000000       0x32 CMakeFiles/SPO.dir/mnt/c/study/GRAD/249A/proj/EECS249-Smart-Pill-Organizer/pico-sdk/src/common/pico_time/timeout_helper.c.obj
 .ARM.attributes
                0x0000000000000000       0x32 CMakeFiles/SPO.dir/mnt/c/study/GRAD/249A/proj/EECS249-Smart-Pill-Organizer/pico-sdk/src/common/pico_time/timeout_helper.c.obj
 .text          0x0000000000000000        0x0 CMakeFiles/SPO.dir/mnt/c/study/GRAD/249A/proj/EECS249-Smart-Pill-Organizer/pico-sdk/src/rp2_common/hardware_timer/timer.c.obj
 .data          0x0000000000000000        0x0 CMakeFiles/SPO.dir/mnt/c/study/GRAD/249A/proj/EECS249-Smart-Pill-Organizer/pico-sdk/src/rp2_common/hardware_timer/timer.c.obj
 .bss           0x0000000000000000        0x0 CMakeFiles/SPO.dir/mnt/c/study/GRAD/249A/proj/EECS249-Smart-Pill-Organizer/pico-sdk/src/rp2_common/hardware_timer/timer.c.obj
 .text.hardware_alarm_unclaim
                0x0000000000000000       0x10 CMakeFiles/SPO.dir/mnt/c/study/GRAD/249A/proj/EECS249-Smart-Pill-Organizer/pico-sdk/src/rp2_common/hardware_timer/timer.c.obj
 .text.hardware_alarm_is_claimed
                0x0000000000000000       0x10 CMakeFiles/SPO.dir/mnt/c/study/GRAD/249A/proj/EECS249-Smart-Pill-Organizer/pico-sdk/src/rp2_common/hardware_timer/timer.c.obj
 .text.busy_wait_us_32
                0x0000000000000000       0x68 CMakeFiles/SPO.dir/mnt/c/study/GRAD/249A/proj/EECS249-Smart-Pill-Organizer/pico-sdk/src/rp2_common/hardware_timer/timer.c.obj
 .text.busy_wait_ms
                0x0000000000000000       0x80 CMakeFiles/SPO.dir/mnt/c/study/GRAD/249A/proj/EECS249-Smart-Pill-Organizer/pico-sdk/src/rp2_common/hardware_timer/timer.c.obj
 .text          0x0000000000000000        0x0 CMakeFiles/SPO.dir/mnt/c/study/GRAD/249A/proj/EECS249-Smart-Pill-Organizer/pico-sdk/src/common/pico_sync/sem.c.obj
 .data          0x0000000000000000        0x0 CMakeFiles/SPO.dir/mnt/c/study/GRAD/249A/proj/EECS249-Smart-Pill-Organizer/pico-sdk/src/common/pico_sync/sem.c.obj
 .bss           0x0000000000000000        0x0 CMakeFiles/SPO.dir/mnt/c/study/GRAD/249A/proj/EECS249-Smart-Pill-Organizer/pico-sdk/src/common/pico_sync/sem.c.obj
 .text.sem_init
                0x0000000000000000       0x20 CMakeFiles/SPO.dir/mnt/c/study/GRAD/249A/proj/EECS249-Smart-Pill-Organizer/pico-sdk/src/common/pico_sync/sem.c.obj
 .time_critical.sem_available
                0x0000000000000000        0x8 CMakeFiles/SPO.dir/mnt/c/study/GRAD/249A/proj/EECS249-Smart-Pill-Organizer/pico-sdk/src/common/pico_sync/sem.c.obj
 .time_critical.sem_acquire_blocking
                0x0000000000000000       0x44 CMakeFiles/SPO.dir/mnt/c/study/GRAD/249A/proj/EECS249-Smart-Pill-Organizer/pico-sdk/src/common/pico_sync/sem.c.obj
 .time_critical.sem_acquire_timeout_ms
                0x0000000000000000       0x98 CMakeFiles/SPO.dir/mnt/c/study/GRAD/249A/proj/EECS249-Smart-Pill-Organizer/pico-sdk/src/common/pico_sync/sem.c.obj
 .time_critical.sem_acquire_timeout_us
                0x0000000000000000       0x78 CMakeFiles/SPO.dir/mnt/c/study/GRAD/249A/proj/EECS249-Smart-Pill-Organizer/pico-sdk/src/common/pico_sync/sem.c.obj
 .time_critical.sem_acquire_block_until
                0x0000000000000000       0x5c CMakeFiles/SPO.dir/mnt/c/study/GRAD/249A/proj/EECS249-Smart-Pill-Organizer/pico-sdk/src/common/pico_sync/sem.c.obj
 .time_critical.sem_release
                0x0000000000000000       0x4c CMakeFiles/SPO.dir/mnt/c/study/GRAD/249A/proj/EECS249-Smart-Pill-Organizer/pico-sdk/src/common/pico_sync/sem.c.obj
 .time_critical.sem_reset
                0x0000000000000000       0x40 CMakeFiles/SPO.dir/mnt/c/study/GRAD/249A/proj/EECS249-Smart-Pill-Organizer/pico-sdk/src/common/pico_sync/sem.c.obj
 .comment       0x0000000000000000       0x32 CMakeFiles/SPO.dir/mnt/c/study/GRAD/249A/proj/EECS249-Smart-Pill-Organizer/pico-sdk/src/common/pico_sync/sem.c.obj
 .ARM.attributes
                0x0000000000000000       0x32 CMakeFiles/SPO.dir/mnt/c/study/GRAD/249A/proj/EECS249-Smart-Pill-Organizer/pico-sdk/src/common/pico_sync/sem.c.obj
 .text          0x0000000000000000        0x0 CMakeFiles/SPO.dir/mnt/c/study/GRAD/249A/proj/EECS249-Smart-Pill-Organizer/pico-sdk/src/common/pico_sync/lock_core.c.obj
 .data          0x0000000000000000        0x0 CMakeFiles/SPO.dir/mnt/c/study/GRAD/249A/proj/EECS249-Smart-Pill-Organizer/pico-sdk/src/common/pico_sync/lock_core.c.obj
 .bss           0x0000000000000000        0x0 CMakeFiles/SPO.dir/mnt/c/study/GRAD/249A/proj/EECS249-Smart-Pill-Organizer/pico-sdk/src/common/pico_sync/lock_core.c.obj
 .text          0x0000000000000000        0x0 CMakeFiles/SPO.dir/mnt/c/study/GRAD/249A/proj/EECS249-Smart-Pill-Organizer/pico-sdk/src/common/pico_sync/mutex.c.obj
 .data          0x0000000000000000        0x0 CMakeFiles/SPO.dir/mnt/c/study/GRAD/249A/proj/EECS249-Smart-Pill-Organizer/pico-sdk/src/common/pico_sync/mutex.c.obj
 .bss           0x0000000000000000        0x0 CMakeFiles/SPO.dir/mnt/c/study/GRAD/249A/proj/EECS249-Smart-Pill-Organizer/pico-sdk/src/common/pico_sync/mutex.c.obj
 .time_critical.recursive_mutex_enter_blocking
                0x0000000000000000       0x54 CMakeFiles/SPO.dir/mnt/c/study/GRAD/249A/proj/EECS249-Smart-Pill-Organizer/pico-sdk/src/common/pico_sync/mutex.c.obj
 .time_critical.recursive_mutex_try_enter
                0x0000000000000000       0x54 CMakeFiles/SPO.dir/mnt/c/study/GRAD/249A/proj/EECS249-Smart-Pill-Organizer/pico-sdk/src/common/pico_sync/mutex.c.obj
 .time_critical.mutex_enter_timeout_ms
                0x0000000000000000       0xa4 CMakeFiles/SPO.dir/mnt/c/study/GRAD/249A/proj/EECS249-Smart-Pill-Organizer/pico-sdk/src/common/pico_sync/mutex.c.obj
 .time_critical.recursive_mutex_enter_timeout_ms
                0x0000000000000000       0xb0 CMakeFiles/SPO.dir/mnt/c/study/GRAD/249A/proj/EECS249-Smart-Pill-Organizer/pico-sdk/src/common/pico_sync/mutex.c.obj
 .time_critical.mutex_enter_timeout_us
                0x0000000000000000       0x84 CMakeFiles/SPO.dir/mnt/c/study/GRAD/249A/proj/EECS249-Smart-Pill-Organizer/pico-sdk/src/common/pico_sync/mutex.c.obj
 .time_critical.recursive_mutex_enter_timeout_us
                0x0000000000000000       0x94 CMakeFiles/SPO.dir/mnt/c/study/GRAD/249A/proj/EECS249-Smart-Pill-Organizer/pico-sdk/src/common/pico_sync/mutex.c.obj
 .time_critical.mutex_enter_block_until
                0x0000000000000000       0x68 CMakeFiles/SPO.dir/mnt/c/study/GRAD/249A/proj/EECS249-Smart-Pill-Organizer/pico-sdk/src/common/pico_sync/mutex.c.obj
 .time_critical.recursive_mutex_enter_block_until
                0x0000000000000000       0x74 CMakeFiles/SPO.dir/mnt/c/study/GRAD/249A/proj/EECS249-Smart-Pill-Organizer/pico-sdk/src/common/pico_sync/mutex.c.obj
 .time_critical.recursive_mutex_exit
                0x0000000000000000       0x44 CMakeFiles/SPO.dir/mnt/c/study/GRAD/249A/proj/EECS249-Smart-Pill-Organizer/pico-sdk/src/common/pico_sync/mutex.c.obj
 .text          0x0000000000000000        0x0 CMakeFiles/SPO.dir/mnt/c/study/GRAD/249A/proj/EECS249-Smart-Pill-Organizer/pico-sdk/src/common/pico_sync/critical_section.c.obj
 .data          0x0000000000000000        0x0 CMakeFiles/SPO.dir/mnt/c/study/GRAD/249A/proj/EECS249-Smart-Pill-Organizer/pico-sdk/src/common/pico_sync/critical_section.c.obj
 .bss           0x0000000000000000        0x0 CMakeFiles/SPO.dir/mnt/c/study/GRAD/249A/proj/EECS249-Smart-Pill-Organizer/pico-sdk/src/common/pico_sync/critical_section.c.obj
 .text.critical_section_init
                0x0000000000000000       0x20 CMakeFiles/SPO.dir/mnt/c/study/GRAD/249A/proj/EECS249-Smart-Pill-Organizer/pico-sdk/src/common/pico_sync/critical_section.c.obj
 .text.critical_section_init_with_lock_num
                0x0000000000000000       0x14 CMakeFiles/SPO.dir/mnt/c/study/GRAD/249A/proj/EECS249-Smart-Pill-Organizer/pico-sdk/src/common/pico_sync/critical_section.c.obj
 .text.critical_section_deinit
                0x0000000000000000       0x18 CMakeFiles/SPO.dir/mnt/c/study/GRAD/249A/proj/EECS249-Smart-Pill-Organizer/pico-sdk/src/common/pico_sync/critical_section.c.obj
 .comment       0x0000000000000000       0x32 CMakeFiles/SPO.dir/mnt/c/study/GRAD/249A/proj/EECS249-Smart-Pill-Organizer/pico-sdk/src/common/pico_sync/critical_section.c.obj
 .ARM.attributes
                0x0000000000000000       0x32 CMakeFiles/SPO.dir/mnt/c/study/GRAD/249A/proj/EECS249-Smart-Pill-Organizer/pico-sdk/src/common/pico_sync/critical_section.c.obj
 .text          0x0000000000000000        0x0 CMakeFiles/SPO.dir/mnt/c/study/GRAD/249A/proj/EECS249-Smart-Pill-Organizer/pico-sdk/src/common/pico_util/datetime.c.obj
 .data          0x0000000000000000        0x0 CMakeFiles/SPO.dir/mnt/c/study/GRAD/249A/proj/EECS249-Smart-Pill-Organizer/pico-sdk/src/common/pico_util/datetime.c.obj
 .bss           0x0000000000000000        0x0 CMakeFiles/SPO.dir/mnt/c/study/GRAD/249A/proj/EECS249-Smart-Pill-Organizer/pico-sdk/src/common/pico_util/datetime.c.obj
 .text.datetime_to_str
                0x0000000000000000       0x50 CMakeFiles/SPO.dir/mnt/c/study/GRAD/249A/proj/EECS249-Smart-Pill-Organizer/pico-sdk/src/common/pico_util/datetime.c.obj
 .rodata.DATETIME_DOWS
                0x0000000000000000       0x1c CMakeFiles/SPO.dir/mnt/c/study/GRAD/249A/proj/EECS249-Smart-Pill-Organizer/pico-sdk/src/common/pico_util/datetime.c.obj
 .rodata.DATETIME_MONTHS
                0x0000000000000000       0x30 CMakeFiles/SPO.dir/mnt/c/study/GRAD/249A/proj/EECS249-Smart-Pill-Organizer/pico-sdk/src/common/pico_util/datetime.c.obj
 .rodata.datetime_to_str.str1.4
                0x0000000000000000       0x19 CMakeFiles/SPO.dir/mnt/c/study/GRAD/249A/proj/EECS249-Smart-Pill-Organizer/pico-sdk/src/common/pico_util/datetime.c.obj
 .rodata.str1.4
                0x0000000000000000       0xad CMakeFiles/SPO.dir/mnt/c/study/GRAD/249A/proj/EECS249-Smart-Pill-Organizer/pico-sdk/src/common/pico_util/datetime.c.obj
 .comment       0x0000000000000000       0x32 CMakeFiles/SPO.dir/mnt/c/study/GRAD/249A/proj/EECS249-Smart-Pill-Organizer/pico-sdk/src/common/pico_util/datetime.c.obj
 .ARM.attributes
                0x0000000000000000       0x32 CMakeFiles/SPO.dir/mnt/c/study/GRAD/249A/proj/EECS249-Smart-Pill-Organizer/pico-sdk/src/common/pico_util/datetime.c.obj
 .text          0x0000000000000000        0x0 CMakeFiles/SPO.dir/mnt/c/study/GRAD/249A/proj/EECS249-Smart-Pill-Organizer/pico-sdk/src/common/pico_util/pheap.c.obj
 .data          0x0000000000000000        0x0 CMakeFiles/SPO.dir/mnt/c/study/GRAD/249A/proj/EECS249-Smart-Pill-Organizer/pico-sdk/src/common/pico_util/pheap.c.obj
 .bss           0x0000000000000000        0x0 CMakeFiles/SPO.dir/mnt/c/study/GRAD/249A/proj/EECS249-Smart-Pill-Organizer/pico-sdk/src/common/pico_util/pheap.c.obj
 .text.ph_dump_node
                0x0000000000000000       0xcc CMakeFiles/SPO.dir/mnt/c/study/GRAD/249A/proj/EECS249-Smart-Pill-Organizer/pico-sdk/src/common/pico_util/pheap.c.obj
 .text.ph_create
                0x0000000000000000       0x60 CMakeFiles/SPO.dir/mnt/c/study/GRAD/249A/proj/EECS249-Smart-Pill-Organizer/pico-sdk/src/common/pico_util/pheap.c.obj
 .text.ph_clear
                0x0000000000000000       0x30 CMakeFiles/SPO.dir/mnt/c/study/GRAD/249A/proj/EECS249-Smart-Pill-Organizer/pico-sdk/src/common/pico_util/pheap.c.obj
 .text.ph_destroy
                0x0000000000000000       0x14 CMakeFiles/SPO.dir/mnt/c/study/GRAD/249A/proj/EECS249-Smart-Pill-Organizer/pico-sdk/src/common/pico_util/pheap.c.obj
 .text.ph_merge_two_pass
                0x0000000000000000      0x17c CMakeFiles/SPO.dir/mnt/c/study/GRAD/249A/proj/EECS249-Smart-Pill-Organizer/pico-sdk/src/common/pico_util/pheap.c.obj
 .text.ph_dump  0x0000000000000000       0x24 CMakeFiles/SPO.dir/mnt/c/study/GRAD/249A/proj/EECS249-Smart-Pill-Organizer/pico-sdk/src/common/pico_util/pheap.c.obj
 .rodata.ph_dump.str1.4
                0x0000000000000000        0xf CMakeFiles/SPO.dir/mnt/c/study/GRAD/249A/proj/EECS249-Smart-Pill-Organizer/pico-sdk/src/common/pico_util/pheap.c.obj
 .rodata.ph_dump_node.str1.4
                0x0000000000000000       0x15 CMakeFiles/SPO.dir/mnt/c/study/GRAD/249A/proj/EECS249-Smart-Pill-Organizer/pico-sdk/src/common/pico_util/pheap.c.obj
 .text          0x0000000000000000        0x0 CMakeFiles/SPO.dir/mnt/c/study/GRAD/249A/proj/EECS249-Smart-Pill-Organizer/pico-sdk/src/common/pico_util/queue.c.obj
 .data          0x0000000000000000        0x0 CMakeFiles/SPO.dir/mnt/c/study/GRAD/249A/proj/EECS249-Smart-Pill-Organizer/pico-sdk/src/common/pico_util/queue.c.obj
 .bss           0x0000000000000000        0x0 CMakeFiles/SPO.dir/mnt/c/study/GRAD/249A/proj/EECS249-Smart-Pill-Organizer/pico-sdk/src/common/pico_util/queue.c.obj
 .text.queue_init_with_spinlock
                0x0000000000000000       0x24 CMakeFiles/SPO.dir/mnt/c/study/GRAD/249A/proj/EECS249-Smart-Pill-Organizer/pico-sdk/src/common/pico_util/queue.c.obj
 .text.queue_free
                0x0000000000000000        0xc CMakeFiles/SPO.dir/mnt/c/study/GRAD/249A/proj/EECS249-Smart-Pill-Organizer/pico-sdk/src/common/pico_util/queue.c.obj
 .text.queue_try_add
                0x0000000000000000       0x70 CMakeFiles/SPO.dir/mnt/c/study/GRAD/249A/proj/EECS249-Smart-Pill-Organizer/pico-sdk/src/common/pico_util/queue.c.obj
 .text.queue_try_remove
                0x0000000000000000       0x70 CMakeFiles/SPO.dir/mnt/c/study/GRAD/249A/proj/EECS249-Smart-Pill-Organizer/pico-sdk/src/common/pico_util/queue.c.obj
 .text.queue_try_peek
                0x0000000000000000       0x60 CMakeFiles/SPO.dir/mnt/c/study/GRAD/249A/proj/EECS249-Smart-Pill-Organizer/pico-sdk/src/common/pico_util/queue.c.obj
 .text.queue_add_blocking
                0x0000000000000000       0x70 CMakeFiles/SPO.dir/mnt/c/study/GRAD/249A/proj/EECS249-Smart-Pill-Organizer/pico-sdk/src/common/pico_util/queue.c.obj
 .text.queue_remove_blocking
                0x0000000000000000       0x70 CMakeFiles/SPO.dir/mnt/c/study/GRAD/249A/proj/EECS249-Smart-Pill-Organizer/pico-sdk/src/common/pico_util/queue.c.obj
 .text.queue_peek_blocking
                0x0000000000000000       0x60 CMakeFiles/SPO.dir/mnt/c/study/GRAD/249A/proj/EECS249-Smart-Pill-Organizer/pico-sdk/src/common/pico_util/queue.c.obj
 .comment       0x0000000000000000       0x32 CMakeFiles/SPO.dir/mnt/c/study/GRAD/249A/proj/EECS249-Smart-Pill-Organizer/pico-sdk/src/common/pico_util/queue.c.obj
 .ARM.attributes
                0x0000000000000000       0x32 CMakeFiles/SPO.dir/mnt/c/study/GRAD/249A/proj/EECS249-Smart-Pill-Organizer/pico-sdk/src/common/pico_util/queue.c.obj
 .text          0x0000000000000000        0x0 CMakeFiles/SPO.dir/mnt/c/study/GRAD/249A/proj/EECS249-Smart-Pill-Organizer/pico-sdk/src/rp2_common/pico_runtime/runtime.c.obj
 .data          0x0000000000000000        0x0 CMakeFiles/SPO.dir/mnt/c/study/GRAD/249A/proj/EECS249-Smart-Pill-Organizer/pico-sdk/src/rp2_common/pico_runtime/runtime.c.obj
 .bss           0x0000000000000000        0x0 CMakeFiles/SPO.dir/mnt/c/study/GRAD/249A/proj/EECS249-Smart-Pill-Organizer/pico-sdk/src/rp2_common/pico_runtime/runtime.c.obj
 .text.runtime_install_stack_guard
                0x0000000000000000       0x38 CMakeFiles/SPO.dir/mnt/c/study/GRAD/249A/proj/EECS249-Smart-Pill-Organizer/pico-sdk/src/rp2_common/pico_runtime/runtime.c.obj
 .text._exit    0x0000000000000000        0x4 CMakeFiles/SPO.dir/mnt/c/study/GRAD/249A/proj/EECS249-Smart-Pill-Organizer/pico-sdk/src/rp2_common/pico_runtime/runtime.c.obj
 .text.__assert_func
                0x0000000000000000       0x34 CMakeFiles/SPO.dir/mnt/c/study/GRAD/249A/proj/EECS249-Smart-Pill-Organizer/pico-sdk/src/rp2_common/pico_runtime/runtime.c.obj
 .text.panic_unsupported
                0x0000000000000000        0xc CMakeFiles/SPO.dir/mnt/c/study/GRAD/249A/proj/EECS249-Smart-Pill-Organizer/pico-sdk/src/rp2_common/pico_runtime/runtime.c.obj
 .rodata.__assert_func.str1.4
                0x0000000000000000       0x43 CMakeFiles/SPO.dir/mnt/c/study/GRAD/249A/proj/EECS249-Smart-Pill-Organizer/pico-sdk/src/rp2_common/pico_runtime/runtime.c.obj
 .rodata.panic_unsupported.str1.4
                0x0000000000000000        0xe CMakeFiles/SPO.dir/mnt/c/study/GRAD/249A/proj/EECS249-Smart-Pill-Organizer/pico-sdk/src/rp2_common/pico_runtime/runtime.c.obj
 .text          0x0000000000000000        0x0 CMakeFiles/SPO.dir/mnt/c/study/GRAD/249A/proj/EECS249-Smart-Pill-Organizer/pico-sdk/src/rp2_common/hardware_clocks/clocks.c.obj
 .data          0x0000000000000000        0x0 CMakeFiles/SPO.dir/mnt/c/study/GRAD/249A/proj/EECS249-Smart-Pill-Organizer/pico-sdk/src/rp2_common/hardware_clocks/clocks.c.obj
 .bss           0x0000000000000000        0x0 CMakeFiles/SPO.dir/mnt/c/study/GRAD/249A/proj/EECS249-Smart-Pill-Organizer/pico-sdk/src/rp2_common/hardware_clocks/clocks.c.obj
 .text.clocks_irq_handler
                0x0000000000000000       0xc8 CMakeFiles/SPO.dir/mnt/c/study/GRAD/249A/proj/EECS249-Smart-Pill-Organizer/pico-sdk/src/rp2_common/hardware_clocks/clocks.c.obj
 .text.clock_stop
                0x0000000000000000       0x2c CMakeFiles/SPO.dir/mnt/c/study/GRAD/249A/proj/EECS249-Smart-Pill-Organizer/pico-sdk/src/rp2_common/hardware_clocks/clocks.c.obj
 .text.clock_configure
                0x0000000000000000      0x10c CMakeFiles/SPO.dir/mnt/c/study/GRAD/249A/proj/EECS249-Smart-Pill-Organizer/pico-sdk/src/rp2_common/hardware_clocks/clocks.c.obj
 .text.clock_set_reported_hz
                0x0000000000000000        0xc CMakeFiles/SPO.dir/mnt/c/study/GRAD/249A/proj/EECS249-Smart-Pill-Organizer/pico-sdk/src/rp2_common/hardware_clocks/clocks.c.obj
 .text.frequency_count_khz
                0x0000000000000000       0x44 CMakeFiles/SPO.dir/mnt/c/study/GRAD/249A/proj/EECS249-Smart-Pill-Organizer/pico-sdk/src/rp2_common/hardware_clocks/clocks.c.obj
 .text.clocks_enable_resus
                0x0000000000000000       0x34 CMakeFiles/SPO.dir/mnt/c/study/GRAD/249A/proj/EECS249-Smart-Pill-Organizer/pico-sdk/src/rp2_common/hardware_clocks/clocks.c.obj
 .text.clock_gpio_init
                0x0000000000000000       0x44 CMakeFiles/SPO.dir/mnt/c/study/GRAD/249A/proj/EECS249-Smart-Pill-Organizer/pico-sdk/src/rp2_common/hardware_clocks/clocks.c.obj
 .text.clock_configure_gpin
                0x0000000000000000      0x11c CMakeFiles/SPO.dir/mnt/c/study/GRAD/249A/proj/EECS249-Smart-Pill-Organizer/pico-sdk/src/rp2_common/hardware_clocks/clocks.c.obj
 .bss._resus_callback
                0x0000000000000000        0x4 CMakeFiles/SPO.dir/mnt/c/study/GRAD/249A/proj/EECS249-Smart-Pill-Organizer/pico-sdk/src/rp2_common/hardware_clocks/clocks.c.obj
 .rodata.gpin0_src
                0x0000000000000000        0xa CMakeFiles/SPO.dir/mnt/c/study/GRAD/249A/proj/EECS249-Smart-Pill-Organizer/pico-sdk/src/rp2_common/hardware_clocks/clocks.c.obj
 .text          0x0000000000000000        0x0 CMakeFiles/SPO.dir/mnt/c/study/GRAD/249A/proj/EECS249-Smart-Pill-Organizer/pico-sdk/src/rp2_common/hardware_irq/irq.c.obj
 .data          0x0000000000000000        0x0 CMakeFiles/SPO.dir/mnt/c/study/GRAD/249A/proj/EECS249-Smart-Pill-Organizer/pico-sdk/src/rp2_common/hardware_irq/irq.c.obj
 .bss           0x0000000000000000        0x0 CMakeFiles/SPO.dir/mnt/c/study/GRAD/249A/proj/EECS249-Smart-Pill-Organizer/pico-sdk/src/rp2_common/hardware_irq/irq.c.obj
 .text.irq_is_enabled
                0x0000000000000000       0x18 CMakeFiles/SPO.dir/mnt/c/study/GRAD/249A/proj/EECS249-Smart-Pill-Organizer/pico-sdk/src/rp2_common/hardware_irq/irq.c.obj
 .text.irq_set_mask_enabled
                0x0000000000000000       0x20 CMakeFiles/SPO.dir/mnt/c/study/GRAD/249A/proj/EECS249-Smart-Pill-Organizer/pico-sdk/src/rp2_common/hardware_irq/irq.c.obj
 .text.irq_set_pending
                0x0000000000000000       0x10 CMakeFiles/SPO.dir/mnt/c/study/GRAD/249A/proj/EECS249-Smart-Pill-Organizer/pico-sdk/src/rp2_common/hardware_irq/irq.c.obj
 .text.irq_get_exclusive_handler
                0x0000000000000000       0x4c CMakeFiles/SPO.dir/mnt/c/study/GRAD/249A/proj/EECS249-Smart-Pill-Organizer/pico-sdk/src/rp2_common/hardware_irq/irq.c.obj
 .text.irq_add_shared_handler
                0x0000000000000000      0x1cc CMakeFiles/SPO.dir/mnt/c/study/GRAD/249A/proj/EECS249-Smart-Pill-Organizer/pico-sdk/src/rp2_common/hardware_irq/irq.c.obj
 .text.irq_set_priority
                0x0000000000000000       0x28 CMakeFiles/SPO.dir/mnt/c/study/GRAD/249A/proj/EECS249-Smart-Pill-Organizer/pico-sdk/src/rp2_common/hardware_irq/irq.c.obj
 .text.irq_get_priority
                0x0000000000000000       0x20 CMakeFiles/SPO.dir/mnt/c/study/GRAD/249A/proj/EECS249-Smart-Pill-Organizer/pico-sdk/src/rp2_common/hardware_irq/irq.c.obj
 .text          0x0000000000000000        0x0 CMakeFiles/SPO.dir/mnt/c/study/GRAD/249A/proj/EECS249-Smart-Pill-Organizer/pico-sdk/src/rp2_common/hardware_irq/irq_handler_chain.S.obj
 .bss           0x0000000000000000        0x0 CMakeFiles/SPO.dir/mnt/c/study/GRAD/249A/proj/EECS249-Smart-Pill-Organizer/pico-sdk/src/rp2_common/hardware_irq/irq_handler_chain.S.obj
 .text          0x0000000000000000        0x0 CMakeFiles/SPO.dir/mnt/c/study/GRAD/249A/proj/EECS249-Smart-Pill-Organizer/pico-sdk/src/rp2_common/hardware_pll/pll.c.obj
 .data          0x0000000000000000        0x0 CMakeFiles/SPO.dir/mnt/c/study/GRAD/249A/proj/EECS249-Smart-Pill-Organizer/pico-sdk/src/rp2_common/hardware_pll/pll.c.obj
 .bss           0x0000000000000000        0x0 CMakeFiles/SPO.dir/mnt/c/study/GRAD/249A/proj/EECS249-Smart-Pill-Organizer/pico-sdk/src/rp2_common/hardware_pll/pll.c.obj
 .text.pll_deinit
                0x0000000000000000        0x8 CMakeFiles/SPO.dir/mnt/c/study/GRAD/249A/proj/EECS249-Smart-Pill-Organizer/pico-sdk/src/rp2_common/hardware_pll/pll.c.obj
 .text          0x0000000000000000        0x0 CMakeFiles/SPO.dir/mnt/c/study/GRAD/249A/proj/EECS249-Smart-Pill-Organizer/pico-sdk/src/rp2_common/hardware_vreg/vreg.c.obj
 .data          0x0000000000000000        0x0 CMakeFiles/SPO.dir/mnt/c/study/GRAD/249A/proj/EECS249-Smart-Pill-Organizer/pico-sdk/src/rp2_common/hardware_vreg/vreg.c.obj
 .bss           0x0000000000000000        0x0 CMakeFiles/SPO.dir/mnt/c/study/GRAD/249A/proj/EECS249-Smart-Pill-Organizer/pico-sdk/src/rp2_common/hardware_vreg/vreg.c.obj
 .text.vreg_set_voltage
                0x0000000000000000       0x1c CMakeFiles/SPO.dir/mnt/c/study/GRAD/249A/proj/EECS249-Smart-Pill-Organizer/pico-sdk/src/rp2_common/hardware_vreg/vreg.c.obj
 .comment       0x0000000000000000       0x32 CMakeFiles/SPO.dir/mnt/c/study/GRAD/249A/proj/EECS249-Smart-Pill-Organizer/pico-sdk/src/rp2_common/hardware_vreg/vreg.c.obj
 .ARM.attributes
                0x0000000000000000       0x32 CMakeFiles/SPO.dir/mnt/c/study/GRAD/249A/proj/EECS249-Smart-Pill-Organizer/pico-sdk/src/rp2_common/hardware_vreg/vreg.c.obj
 .text          0x0000000000000000        0x0 CMakeFiles/SPO.dir/mnt/c/study/GRAD/249A/proj/EECS249-Smart-Pill-Organizer/pico-sdk/src/rp2_common/hardware_watchdog/watchdog.c.obj
 .data          0x0000000000000000        0x0 CMakeFiles/SPO.dir/mnt/c/study/GRAD/249A/proj/EECS249-Smart-Pill-Organizer/pico-sdk/src/rp2_common/hardware_watchdog/watchdog.c.obj
 .bss           0x0000000000000000        0x0 CMakeFiles/SPO.dir/mnt/c/study/GRAD/249A/proj/EECS249-Smart-Pill-Organizer/pico-sdk/src/rp2_common/hardware_watchdog/watchdog.c.obj
 .text.watchdog_update
                0x0000000000000000       0x14 CMakeFiles/SPO.dir/mnt/c/study/GRAD/249A/proj/EECS249-Smart-Pill-Organizer/pico-sdk/src/rp2_common/hardware_watchdog/watchdog.c.obj
 .text.watchdog_get_count
                0x0000000000000000       0x10 CMakeFiles/SPO.dir/mnt/c/study/GRAD/249A/proj/EECS249-Smart-Pill-Organizer/pico-sdk/src/rp2_common/hardware_watchdog/watchdog.c.obj
 .text._watchdog_enable
                0x0000000000000000       0x74 CMakeFiles/SPO.dir/mnt/c/study/GRAD/249A/proj/EECS249-Smart-Pill-Organizer/pico-sdk/src/rp2_common/hardware_watchdog/watchdog.c.obj
 .text.watchdog_enable
                0x0000000000000000       0x7c CMakeFiles/SPO.dir/mnt/c/study/GRAD/249A/proj/EECS249-Smart-Pill-Organizer/pico-sdk/src/rp2_common/hardware_watchdog/watchdog.c.obj
 .text.watchdog_reboot
                0x0000000000000000       0x94 CMakeFiles/SPO.dir/mnt/c/study/GRAD/249A/proj/EECS249-Smart-Pill-Organizer/pico-sdk/src/rp2_common/hardware_watchdog/watchdog.c.obj
 .text.watchdog_caused_reboot
                0x0000000000000000       0x10 CMakeFiles/SPO.dir/mnt/c/study/GRAD/249A/proj/EECS249-Smart-Pill-Organizer/pico-sdk/src/rp2_common/hardware_watchdog/watchdog.c.obj
 .text.watchdog_enable_caused_reboot
                0x0000000000000000       0x24 CMakeFiles/SPO.dir/mnt/c/study/GRAD/249A/proj/EECS249-Smart-Pill-Organizer/pico-sdk/src/rp2_common/hardware_watchdog/watchdog.c.obj
 .bss.load_value
                0x0000000000000000        0x4 CMakeFiles/SPO.dir/mnt/c/study/GRAD/249A/proj/EECS249-Smart-Pill-Organizer/pico-sdk/src/rp2_common/hardware_watchdog/watchdog.c.obj
 .text          0x0000000000000000        0x0 CMakeFiles/SPO.dir/mnt/c/study/GRAD/249A/proj/EECS249-Smart-Pill-Organizer/pico-sdk/src/rp2_common/hardware_xosc/xosc.c.obj
 .data          0x0000000000000000        0x0 CMakeFiles/SPO.dir/mnt/c/study/GRAD/249A/proj/EECS249-Smart-Pill-Organizer/pico-sdk/src/rp2_common/hardware_xosc/xosc.c.obj
 .bss           0x0000000000000000        0x0 CMakeFiles/SPO.dir/mnt/c/study/GRAD/249A/proj/EECS249-Smart-Pill-Organizer/pico-sdk/src/rp2_common/hardware_xosc/xosc.c.obj
 .text.xosc_disable
                0x0000000000000000       0x24 CMakeFiles/SPO.dir/mnt/c/study/GRAD/249A/proj/EECS249-Smart-Pill-Organizer/pico-sdk/src/rp2_common/hardware_xosc/xosc.c.obj
 .text.xosc_dormant
                0x0000000000000000       0x18 CMakeFiles/SPO.dir/mnt/c/study/GRAD/249A/proj/EECS249-Smart-Pill-Organizer/pico-sdk/src/rp2_common/hardware_xosc/xosc.c.obj
 .text          0x0000000000000000        0x0 CMakeFiles/SPO.dir/mnt/c/study/GRAD/249A/proj/EECS249-Smart-Pill-Organizer/pico-sdk/src/rp2_common/pico_printf/printf.c.obj
 .data          0x0000000000000000        0x0 CMakeFiles/SPO.dir/mnt/c/study/GRAD/249A/proj/EECS249-Smart-Pill-Organizer/pico-sdk/src/rp2_common/pico_printf/printf.c.obj
 .bss           0x0000000000000000        0x0 CMakeFiles/SPO.dir/mnt/c/study/GRAD/249A/proj/EECS249-Smart-Pill-Organizer/pico-sdk/src/rp2_common/pico_printf/printf.c.obj
 .text.__wrap_vsnprintf
                0x0000000000000000       0x1c CMakeFiles/SPO.dir/mnt/c/study/GRAD/249A/proj/EECS249-Smart-Pill-Organizer/pico-sdk/src/rp2_common/pico_printf/printf.c.obj
 .text.weak_raw_printf
                0x0000000000000000       0x40 CMakeFiles/SPO.dir/mnt/c/study/GRAD/249A/proj/EECS249-Smart-Pill-Organizer/pico-sdk/src/rp2_common/pico_printf/printf.c.obj
 .data          0x0000000000000000        0x0 CMakeFiles/SPO.dir/mnt/c/study/GRAD/249A/proj/EECS249-Smart-Pill-Organizer/pico-sdk/src/rp2_common/pico_bit_ops/bit_ops_aeabi.S.obj
 .bss           0x0000000000000000        0x0 CMakeFiles/SPO.dir/mnt/c/study/GRAD/249A/proj/EECS249-Smart-Pill-Organizer/pico-sdk/src/rp2_common/pico_bit_ops/bit_ops_aeabi.S.obj
 .text.clzsi    0x0000000000000000        0xc CMakeFiles/SPO.dir/mnt/c/study/GRAD/249A/proj/EECS249-Smart-Pill-Organizer/pico-sdk/src/rp2_common/pico_bit_ops/bit_ops_aeabi.S.obj
 .text.ctzsi    0x0000000000000000        0xc CMakeFiles/SPO.dir/mnt/c/study/GRAD/249A/proj/EECS249-Smart-Pill-Organizer/pico-sdk/src/rp2_common/pico_bit_ops/bit_ops_aeabi.S.obj
 .text.popcountsi
                0x0000000000000000        0xc CMakeFiles/SPO.dir/mnt/c/study/GRAD/249A/proj/EECS249-Smart-Pill-Organizer/pico-sdk/src/rp2_common/pico_bit_ops/bit_ops_aeabi.S.obj
 .text.clzdi    0x0000000000000000       0x18 CMakeFiles/SPO.dir/mnt/c/study/GRAD/249A/proj/EECS249-Smart-Pill-Organizer/pico-sdk/src/rp2_common/pico_bit_ops/bit_ops_aeabi.S.obj
 .text.ctzdi    0x0000000000000000       0x18 CMakeFiles/SPO.dir/mnt/c/study/GRAD/249A/proj/EECS249-Smart-Pill-Organizer/pico-sdk/src/rp2_common/pico_bit_ops/bit_ops_aeabi.S.obj
 .text.popcountdi
                0x0000000000000000       0x18 CMakeFiles/SPO.dir/mnt/c/study/GRAD/249A/proj/EECS249-Smart-Pill-Organizer/pico-sdk/src/rp2_common/pico_bit_ops/bit_ops_aeabi.S.obj
 .text.reverse32
                0x0000000000000000        0xc CMakeFiles/SPO.dir/mnt/c/study/GRAD/249A/proj/EECS249-Smart-Pill-Organizer/pico-sdk/src/rp2_common/pico_bit_ops/bit_ops_aeabi.S.obj
 .text.__rev    0x0000000000000000        0xc CMakeFiles/SPO.dir/mnt/c/study/GRAD/249A/proj/EECS249-Smart-Pill-Organizer/pico-sdk/src/rp2_common/pico_bit_ops/bit_ops_aeabi.S.obj
 .text.__revll  0x0000000000000000       0x18 CMakeFiles/SPO.dir/mnt/c/study/GRAD/249A/proj/EECS249-Smart-Pill-Organizer/pico-sdk/src/rp2_common/pico_bit_ops/bit_ops_aeabi.S.obj
 .text          0x0000000000000000        0x0 CMakeFiles/SPO.dir/mnt/c/study/GRAD/249A/proj/EECS249-Smart-Pill-Organizer/pico-sdk/src/rp2_common/pico_bootrom/bootrom.c.obj
 .data          0x0000000000000000        0x0 CMakeFiles/SPO.dir/mnt/c/study/GRAD/249A/proj/EECS249-Smart-Pill-Organizer/pico-sdk/src/rp2_common/pico_bootrom/bootrom.c.obj
 .bss           0x0000000000000000        0x0 CMakeFiles/SPO.dir/mnt/c/study/GRAD/249A/proj/EECS249-Smart-Pill-Organizer/pico-sdk/src/rp2_common/pico_bootrom/bootrom.c.obj
 .text          0x0000000000000000        0x0 CMakeFiles/SPO.dir/mnt/c/study/GRAD/249A/proj/EECS249-Smart-Pill-Organizer/pico-sdk/src/rp2_common/pico_divider/divider.S.obj
 .data          0x0000000000000000        0x0 CMakeFiles/SPO.dir/mnt/c/study/GRAD/249A/proj/EECS249-Smart-Pill-Organizer/pico-sdk/src/rp2_common/pico_divider/divider.S.obj
 .bss           0x0000000000000000        0x0 CMakeFiles/SPO.dir/mnt/c/study/GRAD/249A/proj/EECS249-Smart-Pill-Organizer/pico-sdk/src/rp2_common/pico_divider/divider.S.obj
 .text.divmod_s64s64_rem
                0x0000000000000000        0xc CMakeFiles/SPO.dir/mnt/c/study/GRAD/249A/proj/EECS249-Smart-Pill-Organizer/pico-sdk/src/rp2_common/pico_divider/divider.S.obj
 .text.divmod_u64u64_rem
                0x0000000000000000        0xc CMakeFiles/SPO.dir/mnt/c/study/GRAD/249A/proj/EECS249-Smart-Pill-Organizer/pico-sdk/src/rp2_common/pico_divider/divider.S.obj
 .text          0x0000000000000000        0x0 CMakeFiles/SPO.dir/mnt/c/study/GRAD/249A/proj/EECS249-Smart-Pill-Organizer/pico-sdk/src/rp2_common/pico_double/double_aeabi.S.obj
 .data          0x0000000000000000        0x0 CMakeFiles/SPO.dir/mnt/c/study/GRAD/249A/proj/EECS249-Smart-Pill-Organizer/pico-sdk/src/rp2_common/pico_double/double_aeabi.S.obj
 .bss           0x0000000000000000        0x0 CMakeFiles/SPO.dir/mnt/c/study/GRAD/249A/proj/EECS249-Smart-Pill-Organizer/pico-sdk/src/rp2_common/pico_double/double_aeabi.S.obj
 .text.push_r8_r11
                0x0000000000000000        0xc CMakeFiles/SPO.dir/mnt/c/study/GRAD/249A/proj/EECS249-Smart-Pill-Organizer/pico-sdk/src/rp2_common/pico_double/double_aeabi.S.obj
 .text.pop_r8_r11
                0x0000000000000000        0xc CMakeFiles/SPO.dir/mnt/c/study/GRAD/249A/proj/EECS249-Smart-Pill-Organizer/pico-sdk/src/rp2_common/pico_double/double_aeabi.S.obj
 .text.__wrap___aeabi_ui2d
                0x0000000000000000       0x18 CMakeFiles/SPO.dir/mnt/c/study/GRAD/249A/proj/EECS249-Smart-Pill-Organizer/pico-sdk/src/rp2_common/pico_double/double_aeabi.S.obj
 .text.double2int
                0x0000000000000000       0x18 CMakeFiles/SPO.dir/mnt/c/study/GRAD/249A/proj/EECS249-Smart-Pill-Organizer/pico-sdk/src/rp2_common/pico_double/double_aeabi.S.obj
 .text.fix2double
                0x0000000000000000       0x18 CMakeFiles/SPO.dir/mnt/c/study/GRAD/249A/proj/EECS249-Smart-Pill-Organizer/pico-sdk/src/rp2_common/pico_double/double_aeabi.S.obj
 .text.ufix2double
                0x0000000000000000       0x28 CMakeFiles/SPO.dir/mnt/c/study/GRAD/249A/proj/EECS249-Smart-Pill-Organizer/pico-sdk/src/rp2_common/pico_double/double_aeabi.S.obj
 .text.fix642double
                0x0000000000000000       0x18 CMakeFiles/SPO.dir/mnt/c/study/GRAD/249A/proj/EECS249-Smart-Pill-Organizer/pico-sdk/src/rp2_common/pico_double/double_aeabi.S.obj
 .text.__wrap___aeabi_l2d
                0x0000000000000000       0x18 CMakeFiles/SPO.dir/mnt/c/study/GRAD/249A/proj/EECS249-Smart-Pill-Organizer/pico-sdk/src/rp2_common/pico_double/double_aeabi.S.obj
 .text.__wrap___aeabi_ul2d
                0x0000000000000000       0x18 CMakeFiles/SPO.dir/mnt/c/study/GRAD/249A/proj/EECS249-Smart-Pill-Organizer/pico-sdk/src/rp2_common/pico_double/double_aeabi.S.obj
 .text.__wrap___aeabi_d2lz
                0x0000000000000000       0x26 CMakeFiles/SPO.dir/mnt/c/study/GRAD/249A/proj/EECS249-Smart-Pill-Organizer/pico-sdk/src/rp2_common/pico_double/double_aeabi.S.obj
 .text.double2int64
                0x0000000000000000       0x18 CMakeFiles/SPO.dir/mnt/c/study/GRAD/249A/proj/EECS249-Smart-Pill-Organizer/pico-sdk/src/rp2_common/pico_double/double_aeabi.S.obj
 .text.__wrap___aeabi_d2ulz
                0x0000000000000000       0x18 CMakeFiles/SPO.dir/mnt/c/study/GRAD/249A/proj/EECS249-Smart-Pill-Organizer/pico-sdk/src/rp2_common/pico_double/double_aeabi.S.obj
 .text.double2fix64
                0x0000000000000000       0x18 CMakeFiles/SPO.dir/mnt/c/study/GRAD/249A/proj/EECS249-Smart-Pill-Organizer/pico-sdk/src/rp2_common/pico_double/double_aeabi.S.obj
 .text.double2ufix64
                0x0000000000000000       0x18 CMakeFiles/SPO.dir/mnt/c/study/GRAD/249A/proj/EECS249-Smart-Pill-Organizer/pico-sdk/src/rp2_common/pico_double/double_aeabi.S.obj
 .text.double2fix
                0x0000000000000000       0x18 CMakeFiles/SPO.dir/mnt/c/study/GRAD/249A/proj/EECS249-Smart-Pill-Organizer/pico-sdk/src/rp2_common/pico_double/double_aeabi.S.obj
 .text.double2ufix
                0x0000000000000000       0x18 CMakeFiles/SPO.dir/mnt/c/study/GRAD/249A/proj/EECS249-Smart-Pill-Organizer/pico-sdk/src/rp2_common/pico_double/double_aeabi.S.obj
 .text.__wrap___aeabi_d2f
                0x0000000000000000       0x18 CMakeFiles/SPO.dir/mnt/c/study/GRAD/249A/proj/EECS249-Smart-Pill-Organizer/pico-sdk/src/rp2_common/pico_double/double_aeabi.S.obj
 .text.__wrap_srqt
                0x0000000000000000       0x18 CMakeFiles/SPO.dir/mnt/c/study/GRAD/249A/proj/EECS249-Smart-Pill-Organizer/pico-sdk/src/rp2_common/pico_double/double_aeabi.S.obj
 .text.__wrap_sincostan_remainder
                0x0000000000000000       0x14 CMakeFiles/SPO.dir/mnt/c/study/GRAD/249A/proj/EECS249-Smart-Pill-Organizer/pico-sdk/src/rp2_common/pico_double/double_aeabi.S.obj
 .text.__wrap_cos
                0x0000000000000000       0x2c CMakeFiles/SPO.dir/mnt/c/study/GRAD/249A/proj/EECS249-Smart-Pill-Organizer/pico-sdk/src/rp2_common/pico_double/double_aeabi.S.obj
 .text.__wrap_sin
                0x0000000000000000       0x2c CMakeFiles/SPO.dir/mnt/c/study/GRAD/249A/proj/EECS249-Smart-Pill-Organizer/pico-sdk/src/rp2_common/pico_double/double_aeabi.S.obj
 .text.__wrap_sincos
                0x0000000000000000       0xa0 CMakeFiles/SPO.dir/mnt/c/study/GRAD/249A/proj/EECS249-Smart-Pill-Organizer/pico-sdk/src/rp2_common/pico_double/double_aeabi.S.obj
 .text.__wrap_tan
                0x0000000000000000       0x5c CMakeFiles/SPO.dir/mnt/c/study/GRAD/249A/proj/EECS249-Smart-Pill-Organizer/pico-sdk/src/rp2_common/pico_double/double_aeabi.S.obj
 .text.__wrap_atan2
                0x0000000000000000       0x18 CMakeFiles/SPO.dir/mnt/c/study/GRAD/249A/proj/EECS249-Smart-Pill-Organizer/pico-sdk/src/rp2_common/pico_double/double_aeabi.S.obj
 .text.__wrap_exp
                0x0000000000000000       0x18 CMakeFiles/SPO.dir/mnt/c/study/GRAD/249A/proj/EECS249-Smart-Pill-Organizer/pico-sdk/src/rp2_common/pico_double/double_aeabi.S.obj
 .text.__wrap_log
                0x0000000000000000       0x18 CMakeFiles/SPO.dir/mnt/c/study/GRAD/249A/proj/EECS249-Smart-Pill-Organizer/pico-sdk/src/rp2_common/pico_double/double_aeabi.S.obj
 .text          0x0000000000000000        0x0 CMakeFiles/SPO.dir/mnt/c/study/GRAD/249A/proj/EECS249-Smart-Pill-Organizer/pico-sdk/src/rp2_common/pico_double/double_init_rom.c.obj
 .data          0x0000000000000000        0x0 CMakeFiles/SPO.dir/mnt/c/study/GRAD/249A/proj/EECS249-Smart-Pill-Organizer/pico-sdk/src/rp2_common/pico_double/double_init_rom.c.obj
 .bss           0x0000000000000000        0x0 CMakeFiles/SPO.dir/mnt/c/study/GRAD/249A/proj/EECS249-Smart-Pill-Organizer/pico-sdk/src/rp2_common/pico_double/double_init_rom.c.obj
 .text          0x0000000000000000        0x0 CMakeFiles/SPO.dir/mnt/c/study/GRAD/249A/proj/EECS249-Smart-Pill-Organizer/pico-sdk/src/rp2_common/pico_double/double_math.c.obj
 .data          0x0000000000000000        0x0 CMakeFiles/SPO.dir/mnt/c/study/GRAD/249A/proj/EECS249-Smart-Pill-Organizer/pico-sdk/src/rp2_common/pico_double/double_math.c.obj
 .bss           0x0000000000000000        0x0 CMakeFiles/SPO.dir/mnt/c/study/GRAD/249A/proj/EECS249-Smart-Pill-Organizer/pico-sdk/src/rp2_common/pico_double/double_math.c.obj
 .text.dpow_1   0x0000000000000000      0x27c CMakeFiles/SPO.dir/mnt/c/study/GRAD/249A/proj/EECS249-Smart-Pill-Organizer/pico-sdk/src/rp2_common/pico_double/double_math.c.obj
 .text.dpow_int2
                0x0000000000000000       0xcc CMakeFiles/SPO.dir/mnt/c/study/GRAD/249A/proj/EECS249-Smart-Pill-Organizer/pico-sdk/src/rp2_common/pico_double/double_math.c.obj
 .text.dpowint_0
                0x0000000000000000      0x1c0 CMakeFiles/SPO.dir/mnt/c/study/GRAD/249A/proj/EECS249-Smart-Pill-Organizer/pico-sdk/src/rp2_common/pico_double/double_math.c.obj
 .text.dpow_0   0x0000000000000000      0x1bc CMakeFiles/SPO.dir/mnt/c/study/GRAD/249A/proj/EECS249-Smart-Pill-Organizer/pico-sdk/src/rp2_common/pico_double/double_math.c.obj
 .text.__wrap_ldexp
                0x0000000000000000       0x4c CMakeFiles/SPO.dir/mnt/c/study/GRAD/249A/proj/EECS249-Smart-Pill-Organizer/pico-sdk/src/rp2_common/pico_double/double_math.c.obj
 .text.__wrap_copysign
                0x0000000000000000       0x10 CMakeFiles/SPO.dir/mnt/c/study/GRAD/249A/proj/EECS249-Smart-Pill-Organizer/pico-sdk/src/rp2_common/pico_double/double_math.c.obj
 .text.__wrap_trunc
                0x0000000000000000       0x50 CMakeFiles/SPO.dir/mnt/c/study/GRAD/249A/proj/EECS249-Smart-Pill-Organizer/pico-sdk/src/rp2_common/pico_double/double_math.c.obj
 .text.__wrap_round
                0x0000000000000000       0x84 CMakeFiles/SPO.dir/mnt/c/study/GRAD/249A/proj/EECS249-Smart-Pill-Organizer/pico-sdk/src/rp2_common/pico_double/double_math.c.obj
 .text.__wrap_floor
                0x0000000000000000       0x94 CMakeFiles/SPO.dir/mnt/c/study/GRAD/249A/proj/EECS249-Smart-Pill-Organizer/pico-sdk/src/rp2_common/pico_double/double_math.c.obj
 .text.__wrap_ceil
                0x0000000000000000       0x94 CMakeFiles/SPO.dir/mnt/c/study/GRAD/249A/proj/EECS249-Smart-Pill-Organizer/pico-sdk/src/rp2_common/pico_double/double_math.c.obj
 .text.__wrap_asin
                0x0000000000000000       0x58 CMakeFiles/SPO.dir/mnt/c/study/GRAD/249A/proj/EECS249-Smart-Pill-Organizer/pico-sdk/src/rp2_common/pico_double/double_math.c.obj
 .text.__wrap_acos
                0x0000000000000000       0x54 CMakeFiles/SPO.dir/mnt/c/study/GRAD/249A/proj/EECS249-Smart-Pill-Organizer/pico-sdk/src/rp2_common/pico_double/double_math.c.obj
 .text.__wrap_atan
                0x0000000000000000       0x40 CMakeFiles/SPO.dir/mnt/c/study/GRAD/249A/proj/EECS249-Smart-Pill-Organizer/pico-sdk/src/rp2_common/pico_double/double_math.c.obj
 .text.__wrap_sinh
                0x0000000000000000       0x54 CMakeFiles/SPO.dir/mnt/c/study/GRAD/249A/proj/EECS249-Smart-Pill-Organizer/pico-sdk/src/rp2_common/pico_double/double_math.c.obj
 .text.__wrap_cosh
                0x0000000000000000       0x54 CMakeFiles/SPO.dir/mnt/c/study/GRAD/249A/proj/EECS249-Smart-Pill-Organizer/pico-sdk/src/rp2_common/pico_double/double_math.c.obj
 .text.__wrap_tanh
                0x0000000000000000       0x68 CMakeFiles/SPO.dir/mnt/c/study/GRAD/249A/proj/EECS249-Smart-Pill-Organizer/pico-sdk/src/rp2_common/pico_double/double_math.c.obj
 .text.__wrap_asinh
                0x0000000000000000       0xb0 CMakeFiles/SPO.dir/mnt/c/study/GRAD/249A/proj/EECS249-Smart-Pill-Organizer/pico-sdk/src/rp2_common/pico_double/double_math.c.obj
 .text.__wrap_acosh
                0x0000000000000000       0x80 CMakeFiles/SPO.dir/mnt/c/study/GRAD/249A/proj/EECS249-Smart-Pill-Organizer/pico-sdk/src/rp2_common/pico_double/double_math.c.obj
 .text.__wrap_atanh
                0x0000000000000000       0x60 CMakeFiles/SPO.dir/mnt/c/study/GRAD/249A/proj/EECS249-Smart-Pill-Organizer/pico-sdk/src/rp2_common/pico_double/double_math.c.obj
 .text.__wrap_exp2
                0x0000000000000000       0xbc CMakeFiles/SPO.dir/mnt/c/study/GRAD/249A/proj/EECS249-Smart-Pill-Organizer/pico-sdk/src/rp2_common/pico_double/double_math.c.obj
 .text.__wrap_log2
                0x0000000000000000       0x18 CMakeFiles/SPO.dir/mnt/c/study/GRAD/249A/proj/EECS249-Smart-Pill-Organizer/pico-sdk/src/rp2_common/pico_double/double_math.c.obj
 .text.__wrap_exp10
                0x0000000000000000       0x14 CMakeFiles/SPO.dir/mnt/c/study/GRAD/249A/proj/EECS249-Smart-Pill-Organizer/pico-sdk/src/rp2_common/pico_double/double_math.c.obj
 .text.__wrap_log10
                0x0000000000000000       0x18 CMakeFiles/SPO.dir/mnt/c/study/GRAD/249A/proj/EECS249-Smart-Pill-Organizer/pico-sdk/src/rp2_common/pico_double/double_math.c.obj
 .text.__wrap_expm1
                0x0000000000000000       0x14 CMakeFiles/SPO.dir/mnt/c/study/GRAD/249A/proj/EECS249-Smart-Pill-Organizer/pico-sdk/src/rp2_common/pico_double/double_math.c.obj
 .text.__wrap_log1p
                0x0000000000000000       0x14 CMakeFiles/SPO.dir/mnt/c/study/GRAD/249A/proj/EECS249-Smart-Pill-Organizer/pico-sdk/src/rp2_common/pico_double/double_math.c.obj
 .text.__wrap_fma
                0x0000000000000000       0x10 CMakeFiles/SPO.dir/mnt/c/study/GRAD/249A/proj/EECS249-Smart-Pill-Organizer/pico-sdk/src/rp2_common/pico_double/double_math.c.obj
 .text.__wrap_powint
                0x0000000000000000       0xa4 CMakeFiles/SPO.dir/mnt/c/study/GRAD/249A/proj/EECS249-Smart-Pill-Organizer/pico-sdk/src/rp2_common/pico_double/double_math.c.obj
 .text.__wrap_pow
                0x0000000000000000      0x31c CMakeFiles/SPO.dir/mnt/c/study/GRAD/249A/proj/EECS249-Smart-Pill-Organizer/pico-sdk/src/rp2_common/pico_double/double_math.c.obj
 .text.__wrap_hypot
                0x0000000000000000      0x19c CMakeFiles/SPO.dir/mnt/c/study/GRAD/249A/proj/EECS249-Smart-Pill-Organizer/pico-sdk/src/rp2_common/pico_double/double_math.c.obj
 .text.__wrap_cbrt
                0x0000000000000000       0xcc CMakeFiles/SPO.dir/mnt/c/study/GRAD/249A/proj/EECS249-Smart-Pill-Organizer/pico-sdk/src/rp2_common/pico_double/double_math.c.obj
 .text.__wrap_fmod
                0x0000000000000000      0x16c CMakeFiles/SPO.dir/mnt/c/study/GRAD/249A/proj/EECS249-Smart-Pill-Organizer/pico-sdk/src/rp2_common/pico_double/double_math.c.obj
 .text.__wrap_remquo
                0x0000000000000000      0x290 CMakeFiles/SPO.dir/mnt/c/study/GRAD/249A/proj/EECS249-Smart-Pill-Organizer/pico-sdk/src/rp2_common/pico_double/double_math.c.obj
 .text.__wrap_drem
                0x0000000000000000       0x10 CMakeFiles/SPO.dir/mnt/c/study/GRAD/249A/proj/EECS249-Smart-Pill-Organizer/pico-sdk/src/rp2_common/pico_double/double_math.c.obj
 .text.__wrap_remainder
                0x0000000000000000       0x10 CMakeFiles/SPO.dir/mnt/c/study/GRAD/249A/proj/EECS249-Smart-Pill-Organizer/pico-sdk/src/rp2_common/pico_double/double_math.c.obj
 .comment       0x0000000000000000       0x32 CMakeFiles/SPO.dir/mnt/c/study/GRAD/249A/proj/EECS249-Smart-Pill-Organizer/pico-sdk/src/rp2_common/pico_double/double_math.c.obj
 .ARM.attributes
                0x0000000000000000       0x32 CMakeFiles/SPO.dir/mnt/c/study/GRAD/249A/proj/EECS249-Smart-Pill-Organizer/pico-sdk/src/rp2_common/pico_double/double_math.c.obj
 .text          0x0000000000000000        0x0 CMakeFiles/SPO.dir/mnt/c/study/GRAD/249A/proj/EECS249-Smart-Pill-Organizer/pico-sdk/src/rp2_common/pico_double/double_v1_rom_shim.S.obj
 .data          0x0000000000000000        0x0 CMakeFiles/SPO.dir/mnt/c/study/GRAD/249A/proj/EECS249-Smart-Pill-Organizer/pico-sdk/src/rp2_common/pico_double/double_v1_rom_shim.S.obj
 .bss           0x0000000000000000        0x0 CMakeFiles/SPO.dir/mnt/c/study/GRAD/249A/proj/EECS249-Smart-Pill-Organizer/pico-sdk/src/rp2_common/pico_double/double_v1_rom_shim.S.obj
 .text.dsqrt_shim
                0x0000000000000000      0x1a8 CMakeFiles/SPO.dir/mnt/c/study/GRAD/249A/proj/EECS249-Smart-Pill-Organizer/pico-sdk/src/rp2_common/pico_double/double_v1_rom_shim.S.obj
 .text.dcordic_vec_step
                0x0000000000000000        0xe CMakeFiles/SPO.dir/mnt/c/study/GRAD/249A/proj/EECS249-Smart-Pill-Organizer/pico-sdk/src/rp2_common/pico_double/double_v1_rom_shim.S.obj
 .text.dcordic_rot_step
                0x0000000000000000       0x76 CMakeFiles/SPO.dir/mnt/c/study/GRAD/249A/proj/EECS249-Smart-Pill-Organizer/pico-sdk/src/rp2_common/pico_double/double_v1_rom_shim.S.obj
 .text.double2int_shim
                0x0000000000000000        0xe CMakeFiles/SPO.dir/mnt/c/study/GRAD/249A/proj/EECS249-Smart-Pill-Organizer/pico-sdk/src/rp2_common/pico_double/double_v1_rom_shim.S.obj
 .text.double2int64_shim
                0x0000000000000000       0x1a CMakeFiles/SPO.dir/mnt/c/study/GRAD/249A/proj/EECS249-Smart-Pill-Organizer/pico-sdk/src/rp2_common/pico_double/double_v1_rom_shim.S.obj
 .text.double2float_shim
                0x0000000000000000       0x5c CMakeFiles/SPO.dir/mnt/c/study/GRAD/249A/proj/EECS249-Smart-Pill-Organizer/pico-sdk/src/rp2_common/pico_double/double_v1_rom_shim.S.obj
 .text.x2double_shims
                0x0000000000000000       0x90 CMakeFiles/SPO.dir/mnt/c/study/GRAD/249A/proj/EECS249-Smart-Pill-Organizer/pico-sdk/src/rp2_common/pico_double/double_v1_rom_shim.S.obj
 .text.dreduce  0x0000000000000000       0x82 CMakeFiles/SPO.dir/mnt/c/study/GRAD/249A/proj/EECS249-Smart-Pill-Organizer/pico-sdk/src/rp2_common/pico_double/double_v1_rom_shim.S.obj
 .text.dtan_shim
                0x0000000000000000       0x20 CMakeFiles/SPO.dir/mnt/c/study/GRAD/249A/proj/EECS249-Smart-Pill-Organizer/pico-sdk/src/rp2_common/pico_double/double_v1_rom_shim.S.obj
 .text.dcos_shim
                0x0000000000000000       0x10 CMakeFiles/SPO.dir/mnt/c/study/GRAD/249A/proj/EECS249-Smart-Pill-Organizer/pico-sdk/src/rp2_common/pico_double/double_v1_rom_shim.S.obj
 .text.dsin_shim
                0x0000000000000000       0x14 CMakeFiles/SPO.dir/mnt/c/study/GRAD/249A/proj/EECS249-Smart-Pill-Organizer/pico-sdk/src/rp2_common/pico_double/double_v1_rom_shim.S.obj
 .text.dsincos_shim
                0x0000000000000000       0x20 CMakeFiles/SPO.dir/mnt/c/study/GRAD/249A/proj/EECS249-Smart-Pill-Organizer/pico-sdk/src/rp2_common/pico_double/double_v1_rom_shim.S.obj
 .text.dtrig_guts
                0x0000000000000000      0x2ec CMakeFiles/SPO.dir/mnt/c/study/GRAD/249A/proj/EECS249-Smart-Pill-Organizer/pico-sdk/src/rp2_common/pico_double/double_v1_rom_shim.S.obj
 .text.dexp_guts
                0x0000000000000000      0x268 CMakeFiles/SPO.dir/mnt/c/study/GRAD/249A/proj/EECS249-Smart-Pill-Organizer/pico-sdk/src/rp2_common/pico_double/double_v1_rom_shim.S.obj
 .text          0x0000000000000000        0x0 CMakeFiles/SPO.dir/mnt/c/study/GRAD/249A/proj/EECS249-Smart-Pill-Organizer/pico-sdk/src/rp2_common/pico_int64_ops/pico_int64_ops_aeabi.S.obj
 .data          0x0000000000000000        0x0 CMakeFiles/SPO.dir/mnt/c/study/GRAD/249A/proj/EECS249-Smart-Pill-Organizer/pico-sdk/src/rp2_common/pico_int64_ops/pico_int64_ops_aeabi.S.obj
 .bss           0x0000000000000000        0x0 CMakeFiles/SPO.dir/mnt/c/study/GRAD/249A/proj/EECS249-Smart-Pill-Organizer/pico-sdk/src/rp2_common/pico_int64_ops/pico_int64_ops_aeabi.S.obj
 .text          0x0000000000000000        0x0 CMakeFiles/SPO.dir/mnt/c/study/GRAD/249A/proj/EECS249-Smart-Pill-Organizer/pico-sdk/src/rp2_common/pico_float/float_aeabi.S.obj
 .data          0x0000000000000000        0x0 CMakeFiles/SPO.dir/mnt/c/study/GRAD/249A/proj/EECS249-Smart-Pill-Organizer/pico-sdk/src/rp2_common/pico_float/float_aeabi.S.obj
 .bss           0x0000000000000000        0x0 CMakeFiles/SPO.dir/mnt/c/study/GRAD/249A/proj/EECS249-Smart-Pill-Organizer/pico-sdk/src/rp2_common/pico_float/float_aeabi.S.obj
 .text.__wrap___aeabi_farithmetic
                0x0000000000000000       0x48 CMakeFiles/SPO.dir/mnt/c/study/GRAD/249A/proj/EECS249-Smart-Pill-Organizer/pico-sdk/src/rp2_common/pico_float/float_aeabi.S.obj
 .text.__wrap___aeabi_cfcmple
                0x0000000000000000       0x50 CMakeFiles/SPO.dir/mnt/c/study/GRAD/249A/proj/EECS249-Smart-Pill-Organizer/pico-sdk/src/rp2_common/pico_float/float_aeabi.S.obj
 .text.__wrap___aeabi_fcmpeq
                0x0000000000000000       0x10 CMakeFiles/SPO.dir/mnt/c/study/GRAD/249A/proj/EECS249-Smart-Pill-Organizer/pico-sdk/src/rp2_common/pico_float/float_aeabi.S.obj
 .text.__wrap___aeabi_fcmplt
                0x0000000000000000        0xc CMakeFiles/SPO.dir/mnt/c/study/GRAD/249A/proj/EECS249-Smart-Pill-Organizer/pico-sdk/src/rp2_common/pico_float/float_aeabi.S.obj
 .text.__wrap___aeabi_fcmple
                0x0000000000000000       0x10 CMakeFiles/SPO.dir/mnt/c/study/GRAD/249A/proj/EECS249-Smart-Pill-Organizer/pico-sdk/src/rp2_common/pico_float/float_aeabi.S.obj
 .text.__wrap___aeabi_fcmpge
                0x0000000000000000       0x10 CMakeFiles/SPO.dir/mnt/c/study/GRAD/249A/proj/EECS249-Smart-Pill-Organizer/pico-sdk/src/rp2_common/pico_float/float_aeabi.S.obj
 .text.__wrap___aeabi_fcmpgt
                0x0000000000000000        0xa CMakeFiles/SPO.dir/mnt/c/study/GRAD/249A/proj/EECS249-Smart-Pill-Organizer/pico-sdk/src/rp2_common/pico_float/float_aeabi.S.obj
 .text.__wrap___aeabi_fcmpun
                0x0000000000000000       0x18 CMakeFiles/SPO.dir/mnt/c/study/GRAD/249A/proj/EECS249-Smart-Pill-Organizer/pico-sdk/src/rp2_common/pico_float/float_aeabi.S.obj
 .text.__wrap___aeabi_ui2f
                0x0000000000000000        0xa CMakeFiles/SPO.dir/mnt/c/study/GRAD/249A/proj/EECS249-Smart-Pill-Organizer/pico-sdk/src/rp2_common/pico_float/float_aeabi.S.obj
 .text.__wrap___aeabi_i2f
                0x0000000000000000       0x44 CMakeFiles/SPO.dir/mnt/c/study/GRAD/249A/proj/EECS249-Smart-Pill-Organizer/pico-sdk/src/rp2_common/pico_float/float_aeabi.S.obj
 .text.__wrap___aeabi_f2iz
                0x0000000000000000       0x4e CMakeFiles/SPO.dir/mnt/c/study/GRAD/249A/proj/EECS249-Smart-Pill-Organizer/pico-sdk/src/rp2_common/pico_float/float_aeabi.S.obj
 .text.float2int
                0x0000000000000000       0x14 CMakeFiles/SPO.dir/mnt/c/study/GRAD/249A/proj/EECS249-Smart-Pill-Organizer/pico-sdk/src/rp2_common/pico_float/float_aeabi.S.obj
 .text.float2fix
                0x0000000000000000       0x14 CMakeFiles/SPO.dir/mnt/c/study/GRAD/249A/proj/EECS249-Smart-Pill-Organizer/pico-sdk/src/rp2_common/pico_float/float_aeabi.S.obj
 .text.float2ufix
                0x0000000000000000        0xc CMakeFiles/SPO.dir/mnt/c/study/GRAD/249A/proj/EECS249-Smart-Pill-Organizer/pico-sdk/src/rp2_common/pico_float/float_aeabi.S.obj
 .text.__wrap___aeabi_f2uiz
                0x0000000000000000        0xc CMakeFiles/SPO.dir/mnt/c/study/GRAD/249A/proj/EECS249-Smart-Pill-Organizer/pico-sdk/src/rp2_common/pico_float/float_aeabi.S.obj
 .text.fix2float
                0x0000000000000000        0xc CMakeFiles/SPO.dir/mnt/c/study/GRAD/249A/proj/EECS249-Smart-Pill-Organizer/pico-sdk/src/rp2_common/pico_float/float_aeabi.S.obj
 .text.ufix2float
                0x0000000000000000        0xc CMakeFiles/SPO.dir/mnt/c/study/GRAD/249A/proj/EECS249-Smart-Pill-Organizer/pico-sdk/src/rp2_common/pico_float/float_aeabi.S.obj
 .text.fix642float
                0x0000000000000000       0x14 CMakeFiles/SPO.dir/mnt/c/study/GRAD/249A/proj/EECS249-Smart-Pill-Organizer/pico-sdk/src/rp2_common/pico_float/float_aeabi.S.obj
 .text.ufix642float
                0x0000000000000000       0x14 CMakeFiles/SPO.dir/mnt/c/study/GRAD/249A/proj/EECS249-Smart-Pill-Organizer/pico-sdk/src/rp2_common/pico_float/float_aeabi.S.obj
 .text.__wrap___aeabi_l2f
                0x0000000000000000       0x20 CMakeFiles/SPO.dir/mnt/c/study/GRAD/249A/proj/EECS249-Smart-Pill-Organizer/pico-sdk/src/rp2_common/pico_float/float_aeabi.S.obj
 .text.__wrap___aeabi_ul2f
                0x0000000000000000       0x20 CMakeFiles/SPO.dir/mnt/c/study/GRAD/249A/proj/EECS249-Smart-Pill-Organizer/pico-sdk/src/rp2_common/pico_float/float_aeabi.S.obj
 .text.__wrap___aeabi_f2lz
                0x0000000000000000       0x26 CMakeFiles/SPO.dir/mnt/c/study/GRAD/249A/proj/EECS249-Smart-Pill-Organizer/pico-sdk/src/rp2_common/pico_float/float_aeabi.S.obj
 .text.float2int64
                0x0000000000000000       0x14 CMakeFiles/SPO.dir/mnt/c/study/GRAD/249A/proj/EECS249-Smart-Pill-Organizer/pico-sdk/src/rp2_common/pico_float/float_aeabi.S.obj
 .text.float2fix64
                0x0000000000000000       0x14 CMakeFiles/SPO.dir/mnt/c/study/GRAD/249A/proj/EECS249-Smart-Pill-Organizer/pico-sdk/src/rp2_common/pico_float/float_aeabi.S.obj
 .text.__wrap___aeabi_f2ulz
                0x0000000000000000       0x14 CMakeFiles/SPO.dir/mnt/c/study/GRAD/249A/proj/EECS249-Smart-Pill-Organizer/pico-sdk/src/rp2_common/pico_float/float_aeabi.S.obj
 .text.float2ufix64
                0x0000000000000000       0x14 CMakeFiles/SPO.dir/mnt/c/study/GRAD/249A/proj/EECS249-Smart-Pill-Organizer/pico-sdk/src/rp2_common/pico_float/float_aeabi.S.obj
 .text.__wrap___aeabi_f2d
                0x0000000000000000       0x14 CMakeFiles/SPO.dir/mnt/c/study/GRAD/249A/proj/EECS249-Smart-Pill-Organizer/pico-sdk/src/rp2_common/pico_float/float_aeabi.S.obj
 .text.__wrap_srqtf
                0x0000000000000000       0x20 CMakeFiles/SPO.dir/mnt/c/study/GRAD/249A/proj/EECS249-Smart-Pill-Organizer/pico-sdk/src/rp2_common/pico_float/float_aeabi.S.obj
 .text.__wrap_cosf
                0x0000000000000000       0x24 CMakeFiles/SPO.dir/mnt/c/study/GRAD/249A/proj/EECS249-Smart-Pill-Organizer/pico-sdk/src/rp2_common/pico_float/float_aeabi.S.obj
 .text.__wrap_sinf
                0x0000000000000000       0x24 CMakeFiles/SPO.dir/mnt/c/study/GRAD/249A/proj/EECS249-Smart-Pill-Organizer/pico-sdk/src/rp2_common/pico_float/float_aeabi.S.obj
 .text.__wrap_sincosf
                0x0000000000000000       0x30 CMakeFiles/SPO.dir/mnt/c/study/GRAD/249A/proj/EECS249-Smart-Pill-Organizer/pico-sdk/src/rp2_common/pico_float/float_aeabi.S.obj
 .text.__wrap_tanf
                0x0000000000000000       0x4c CMakeFiles/SPO.dir/mnt/c/study/GRAD/249A/proj/EECS249-Smart-Pill-Organizer/pico-sdk/src/rp2_common/pico_float/float_aeabi.S.obj
 .text.__wrap_atan2f
                0x0000000000000000       0x14 CMakeFiles/SPO.dir/mnt/c/study/GRAD/249A/proj/EECS249-Smart-Pill-Organizer/pico-sdk/src/rp2_common/pico_float/float_aeabi.S.obj
 .text.__wrap_expf
                0x0000000000000000        0xc CMakeFiles/SPO.dir/mnt/c/study/GRAD/249A/proj/EECS249-Smart-Pill-Organizer/pico-sdk/src/rp2_common/pico_float/float_aeabi.S.obj
 .text.__wrap_logf
                0x0000000000000000        0xc CMakeFiles/SPO.dir/mnt/c/study/GRAD/249A/proj/EECS249-Smart-Pill-Organizer/pico-sdk/src/rp2_common/pico_float/float_aeabi.S.obj
 .text          0x0000000000000000        0x0 CMakeFiles/SPO.dir/mnt/c/study/GRAD/249A/proj/EECS249-Smart-Pill-Organizer/pico-sdk/src/rp2_common/pico_float/float_init_rom.c.obj
 .data          0x0000000000000000        0x0 CMakeFiles/SPO.dir/mnt/c/study/GRAD/249A/proj/EECS249-Smart-Pill-Organizer/pico-sdk/src/rp2_common/pico_float/float_init_rom.c.obj
 .bss           0x0000000000000000        0x0 CMakeFiles/SPO.dir/mnt/c/study/GRAD/249A/proj/EECS249-Smart-Pill-Organizer/pico-sdk/src/rp2_common/pico_float/float_init_rom.c.obj
 .bss.sf_clz_func
                0x0000000000000000        0x4 CMakeFiles/SPO.dir/mnt/c/study/GRAD/249A/proj/EECS249-Smart-Pill-Organizer/pico-sdk/src/rp2_common/pico_float/float_init_rom.c.obj
 .text          0x0000000000000000        0x0 CMakeFiles/SPO.dir/mnt/c/study/GRAD/249A/proj/EECS249-Smart-Pill-Organizer/pico-sdk/src/rp2_common/pico_float/float_math.c.obj
 .data          0x0000000000000000        0x0 CMakeFiles/SPO.dir/mnt/c/study/GRAD/249A/proj/EECS249-Smart-Pill-Organizer/pico-sdk/src/rp2_common/pico_float/float_math.c.obj
 .bss           0x0000000000000000        0x0 CMakeFiles/SPO.dir/mnt/c/study/GRAD/249A/proj/EECS249-Smart-Pill-Organizer/pico-sdk/src/rp2_common/pico_float/float_math.c.obj
 .text.fpow_int2
                0x0000000000000000       0xac CMakeFiles/SPO.dir/mnt/c/study/GRAD/249A/proj/EECS249-Smart-Pill-Organizer/pico-sdk/src/rp2_common/pico_float/float_math.c.obj
 .text.fpowint_0
                0x0000000000000000       0xe8 CMakeFiles/SPO.dir/mnt/c/study/GRAD/249A/proj/EECS249-Smart-Pill-Organizer/pico-sdk/src/rp2_common/pico_float/float_math.c.obj
 .text.fpow_0   0x0000000000000000       0xf4 CMakeFiles/SPO.dir/mnt/c/study/GRAD/249A/proj/EECS249-Smart-Pill-Organizer/pico-sdk/src/rp2_common/pico_float/float_math.c.obj
 .text.__wrap_ldexpf
                0x0000000000000000       0x30 CMakeFiles/SPO.dir/mnt/c/study/GRAD/249A/proj/EECS249-Smart-Pill-Organizer/pico-sdk/src/rp2_common/pico_float/float_math.c.obj
 .text.__wrap_copysignf
                0x0000000000000000        0xc CMakeFiles/SPO.dir/mnt/c/study/GRAD/249A/proj/EECS249-Smart-Pill-Organizer/pico-sdk/src/rp2_common/pico_float/float_math.c.obj
 .text.__wrap_truncf
                0x0000000000000000       0x20 CMakeFiles/SPO.dir/mnt/c/study/GRAD/249A/proj/EECS249-Smart-Pill-Organizer/pico-sdk/src/rp2_common/pico_float/float_math.c.obj
 .text.__wrap_roundf
                0x0000000000000000       0x3c CMakeFiles/SPO.dir/mnt/c/study/GRAD/249A/proj/EECS249-Smart-Pill-Organizer/pico-sdk/src/rp2_common/pico_float/float_math.c.obj
 .text.__wrap_floorf
                0x0000000000000000       0x40 CMakeFiles/SPO.dir/mnt/c/study/GRAD/249A/proj/EECS249-Smart-Pill-Organizer/pico-sdk/src/rp2_common/pico_float/float_math.c.obj
 .text.__wrap_ceilf
                0x0000000000000000       0x40 CMakeFiles/SPO.dir/mnt/c/study/GRAD/249A/proj/EECS249-Smart-Pill-Organizer/pico-sdk/src/rp2_common/pico_float/float_math.c.obj
 .text.__wrap_asinf
                0x0000000000000000       0x40 CMakeFiles/SPO.dir/mnt/c/study/GRAD/249A/proj/EECS249-Smart-Pill-Organizer/pico-sdk/src/rp2_common/pico_float/float_math.c.obj
 .text.__wrap_acosf
                0x0000000000000000       0x40 CMakeFiles/SPO.dir/mnt/c/study/GRAD/249A/proj/EECS249-Smart-Pill-Organizer/pico-sdk/src/rp2_common/pico_float/float_math.c.obj
 .text.__wrap_atanf
                0x0000000000000000       0x2c CMakeFiles/SPO.dir/mnt/c/study/GRAD/249A/proj/EECS249-Smart-Pill-Organizer/pico-sdk/src/rp2_common/pico_float/float_math.c.obj
 .text.__wrap_sinhf
                0x0000000000000000       0x3c CMakeFiles/SPO.dir/mnt/c/study/GRAD/249A/proj/EECS249-Smart-Pill-Organizer/pico-sdk/src/rp2_common/pico_float/float_math.c.obj
 .text.__wrap_coshf
                0x0000000000000000       0x3c CMakeFiles/SPO.dir/mnt/c/study/GRAD/249A/proj/EECS249-Smart-Pill-Organizer/pico-sdk/src/rp2_common/pico_float/float_math.c.obj
 .text.__wrap_tanhf
                0x0000000000000000       0x4c CMakeFiles/SPO.dir/mnt/c/study/GRAD/249A/proj/EECS249-Smart-Pill-Organizer/pico-sdk/src/rp2_common/pico_float/float_math.c.obj
 .text.__wrap_asinhf
                0x0000000000000000       0xb4 CMakeFiles/SPO.dir/mnt/c/study/GRAD/249A/proj/EECS249-Smart-Pill-Organizer/pico-sdk/src/rp2_common/pico_float/float_math.c.obj
 .text.__wrap_acoshf
                0x0000000000000000       0x70 CMakeFiles/SPO.dir/mnt/c/study/GRAD/249A/proj/EECS249-Smart-Pill-Organizer/pico-sdk/src/rp2_common/pico_float/float_math.c.obj
 .text.__wrap_atanhf
                0x0000000000000000       0x44 CMakeFiles/SPO.dir/mnt/c/study/GRAD/249A/proj/EECS249-Smart-Pill-Organizer/pico-sdk/src/rp2_common/pico_float/float_math.c.obj
 .text.__wrap_exp2f
                0x0000000000000000       0x20 CMakeFiles/SPO.dir/mnt/c/study/GRAD/249A/proj/EECS249-Smart-Pill-Organizer/pico-sdk/src/rp2_common/pico_float/float_math.c.obj
 .text.__wrap_log2f
                0x0000000000000000       0x14 CMakeFiles/SPO.dir/mnt/c/study/GRAD/249A/proj/EECS249-Smart-Pill-Organizer/pico-sdk/src/rp2_common/pico_float/float_math.c.obj
 .text.__wrap_exp10f
                0x0000000000000000       0x20 CMakeFiles/SPO.dir/mnt/c/study/GRAD/249A/proj/EECS249-Smart-Pill-Organizer/pico-sdk/src/rp2_common/pico_float/float_math.c.obj
 .text.__wrap_log10f
                0x0000000000000000       0x14 CMakeFiles/SPO.dir/mnt/c/study/GRAD/249A/proj/EECS249-Smart-Pill-Organizer/pico-sdk/src/rp2_common/pico_float/float_math.c.obj
 .text.__wrap_expm1f
                0x0000000000000000       0x1c CMakeFiles/SPO.dir/mnt/c/study/GRAD/249A/proj/EECS249-Smart-Pill-Organizer/pico-sdk/src/rp2_common/pico_float/float_math.c.obj
 .text.__wrap_log1pf
                0x0000000000000000       0x1c CMakeFiles/SPO.dir/mnt/c/study/GRAD/249A/proj/EECS249-Smart-Pill-Organizer/pico-sdk/src/rp2_common/pico_float/float_math.c.obj
 .text.__wrap_fmaf
                0x0000000000000000       0x3c CMakeFiles/SPO.dir/mnt/c/study/GRAD/249A/proj/EECS249-Smart-Pill-Organizer/pico-sdk/src/rp2_common/pico_float/float_math.c.obj
 .text.__wrap_powintf
                0x0000000000000000       0x84 CMakeFiles/SPO.dir/mnt/c/study/GRAD/249A/proj/EECS249-Smart-Pill-Organizer/pico-sdk/src/rp2_common/pico_float/float_math.c.obj
 .text.__wrap_powf
                0x0000000000000000      0x174 CMakeFiles/SPO.dir/mnt/c/study/GRAD/249A/proj/EECS249-Smart-Pill-Organizer/pico-sdk/src/rp2_common/pico_float/float_math.c.obj
 .text.__wrap_hypotf
                0x0000000000000000       0xfc CMakeFiles/SPO.dir/mnt/c/study/GRAD/249A/proj/EECS249-Smart-Pill-Organizer/pico-sdk/src/rp2_common/pico_float/float_math.c.obj
 .text.__wrap_cbrtf
                0x0000000000000000       0x9c CMakeFiles/SPO.dir/mnt/c/study/GRAD/249A/proj/EECS249-Smart-Pill-Organizer/pico-sdk/src/rp2_common/pico_float/float_math.c.obj
 .text.__wrap_fmodf
                0x0000000000000000       0xb4 CMakeFiles/SPO.dir/mnt/c/study/GRAD/249A/proj/EECS249-Smart-Pill-Organizer/pico-sdk/src/rp2_common/pico_float/float_math.c.obj
 .text.__wrap_remquof
                0x0000000000000000      0x148 CMakeFiles/SPO.dir/mnt/c/study/GRAD/249A/proj/EECS249-Smart-Pill-Organizer/pico-sdk/src/rp2_common/pico_float/float_math.c.obj
 .text.__wrap_dremf
                0x0000000000000000        0xc CMakeFiles/SPO.dir/mnt/c/study/GRAD/249A/proj/EECS249-Smart-Pill-Organizer/pico-sdk/src/rp2_common/pico_float/float_math.c.obj
 .text.__wrap_remainderf
                0x0000000000000000        0xc CMakeFiles/SPO.dir/mnt/c/study/GRAD/249A/proj/EECS249-Smart-Pill-Organizer/pico-sdk/src/rp2_common/pico_float/float_math.c.obj
 .comment       0x0000000000000000       0x32 CMakeFiles/SPO.dir/mnt/c/study/GRAD/249A/proj/EECS249-Smart-Pill-Organizer/pico-sdk/src/rp2_common/pico_float/float_math.c.obj
 .ARM.attributes
                0x0000000000000000       0x32 CMakeFiles/SPO.dir/mnt/c/study/GRAD/249A/proj/EECS249-Smart-Pill-Organizer/pico-sdk/src/rp2_common/pico_float/float_math.c.obj
 .text          0x0000000000000000        0x0 CMakeFiles/SPO.dir/mnt/c/study/GRAD/249A/proj/EECS249-Smart-Pill-Organizer/pico-sdk/src/rp2_common/pico_float/float_v1_rom_shim.S.obj
 .data          0x0000000000000000        0x0 CMakeFiles/SPO.dir/mnt/c/study/GRAD/249A/proj/EECS249-Smart-Pill-Organizer/pico-sdk/src/rp2_common/pico_float/float_v1_rom_shim.S.obj
 .bss           0x0000000000000000        0x0 CMakeFiles/SPO.dir/mnt/c/study/GRAD/249A/proj/EECS249-Smart-Pill-Organizer/pico-sdk/src/rp2_common/pico_float/float_v1_rom_shim.S.obj
 .text.642float_shims
                0x0000000000000000       0x44 CMakeFiles/SPO.dir/mnt/c/study/GRAD/249A/proj/EECS249-Smart-Pill-Organizer/pico-sdk/src/rp2_common/pico_float/float_v1_rom_shim.S.obj
 .text.fatan2_shim
                0x0000000000000000       0x88 CMakeFiles/SPO.dir/mnt/c/study/GRAD/249A/proj/EECS249-Smart-Pill-Organizer/pico-sdk/src/rp2_common/pico_float/float_v1_rom_shim.S.obj
 .text.float232_shims
                0x0000000000000000       0x18 CMakeFiles/SPO.dir/mnt/c/study/GRAD/249A/proj/EECS249-Smart-Pill-Organizer/pico-sdk/src/rp2_common/pico_float/float_v1_rom_shim.S.obj
 .text.float264_shims
                0x0000000000000000       0x4c CMakeFiles/SPO.dir/mnt/c/study/GRAD/249A/proj/EECS249-Smart-Pill-Organizer/pico-sdk/src/rp2_common/pico_float/float_v1_rom_shim.S.obj
 .text.d2fix_a_float
                0x0000000000000000       0x5c CMakeFiles/SPO.dir/mnt/c/study/GRAD/249A/proj/EECS249-Smart-Pill-Organizer/pico-sdk/src/rp2_common/pico_float/float_v1_rom_shim.S.obj
 .text.float2double_shim
                0x0000000000000000       0x30 CMakeFiles/SPO.dir/mnt/c/study/GRAD/249A/proj/EECS249-Smart-Pill-Organizer/pico-sdk/src/rp2_common/pico_float/float_v1_rom_shim.S.obj
 .text          0x0000000000000000        0x0 CMakeFiles/SPO.dir/mnt/c/study/GRAD/249A/proj/EECS249-Smart-Pill-Organizer/pico-sdk/src/rp2_common/pico_malloc/pico_malloc.c.obj
 .data          0x0000000000000000        0x0 CMakeFiles/SPO.dir/mnt/c/study/GRAD/249A/proj/EECS249-Smart-Pill-Organizer/pico-sdk/src/rp2_common/pico_malloc/pico_malloc.c.obj
 .bss           0x0000000000000000        0x0 CMakeFiles/SPO.dir/mnt/c/study/GRAD/249A/proj/EECS249-Smart-Pill-Organizer/pico-sdk/src/rp2_common/pico_malloc/pico_malloc.c.obj
 .data          0x0000000000000000        0x0 CMakeFiles/SPO.dir/mnt/c/study/GRAD/249A/proj/EECS249-Smart-Pill-Organizer/pico-sdk/src/rp2_common/pico_mem_ops/mem_ops_aeabi.S.obj
 .bss           0x0000000000000000        0x0 CMakeFiles/SPO.dir/mnt/c/study/GRAD/249A/proj/EECS249-Smart-Pill-Organizer/pico-sdk/src/rp2_common/pico_mem_ops/mem_ops_aeabi.S.obj
 .text.aeabi_memset_memcpy
                0x0000000000000000       0x24 CMakeFiles/SPO.dir/mnt/c/study/GRAD/249A/proj/EECS249-Smart-Pill-Organizer/pico-sdk/src/rp2_common/pico_mem_ops/mem_ops_aeabi.S.obj
 .text          0x0000000000000000        0x0 CMakeFiles/SPO.dir/mnt/c/study/GRAD/249A/proj/EECS249-Smart-Pill-Organizer/pico-sdk/src/rp2_common/pico_standard_link/crt0.S.obj
 .data          0x0000000000000000        0x0 CMakeFiles/SPO.dir/mnt/c/study/GRAD/249A/proj/EECS249-Smart-Pill-Organizer/pico-sdk/src/rp2_common/pico_standard_link/crt0.S.obj
 .bss           0x0000000000000000        0x0 CMakeFiles/SPO.dir/mnt/c/study/GRAD/249A/proj/EECS249-Smart-Pill-Organizer/pico-sdk/src/rp2_common/pico_standard_link/crt0.S.obj
 .text          0x0000000000000000        0x0 CMakeFiles/SPO.dir/mnt/c/study/GRAD/249A/proj/EECS249-Smart-Pill-Organizer/pico-sdk/src/rp2_common/pico_standard_link/new_delete.cpp.obj
 .data          0x0000000000000000        0x0 CMakeFiles/SPO.dir/mnt/c/study/GRAD/249A/proj/EECS249-Smart-Pill-Organizer/pico-sdk/src/rp2_common/pico_standard_link/new_delete.cpp.obj
 .bss           0x0000000000000000        0x0 CMakeFiles/SPO.dir/mnt/c/study/GRAD/249A/proj/EECS249-Smart-Pill-Organizer/pico-sdk/src/rp2_common/pico_standard_link/new_delete.cpp.obj
 .text._Znwj    0x0000000000000000        0x8 CMakeFiles/SPO.dir/mnt/c/study/GRAD/249A/proj/EECS249-Smart-Pill-Organizer/pico-sdk/src/rp2_common/pico_standard_link/new_delete.cpp.obj
 .text._Znaj    0x0000000000000000        0x8 CMakeFiles/SPO.dir/mnt/c/study/GRAD/249A/proj/EECS249-Smart-Pill-Organizer/pico-sdk/src/rp2_common/pico_standard_link/new_delete.cpp.obj
 .text._ZdlPv   0x0000000000000000        0x8 CMakeFiles/SPO.dir/mnt/c/study/GRAD/249A/proj/EECS249-Smart-Pill-Organizer/pico-sdk/src/rp2_common/pico_standard_link/new_delete.cpp.obj
 .text._ZdaPv   0x0000000000000000        0x8 CMakeFiles/SPO.dir/mnt/c/study/GRAD/249A/proj/EECS249-Smart-Pill-Organizer/pico-sdk/src/rp2_common/pico_standard_link/new_delete.cpp.obj
 .text._ZdlPvj  0x0000000000000000        0x8 CMakeFiles/SPO.dir/mnt/c/study/GRAD/249A/proj/EECS249-Smart-Pill-Organizer/pico-sdk/src/rp2_common/pico_standard_link/new_delete.cpp.obj
 .text._ZdaPvj  0x0000000000000000        0x8 CMakeFiles/SPO.dir/mnt/c/study/GRAD/249A/proj/EECS249-Smart-Pill-Organizer/pico-sdk/src/rp2_common/pico_standard_link/new_delete.cpp.obj
 .comment       0x0000000000000000       0x32 CMakeFiles/SPO.dir/mnt/c/study/GRAD/249A/proj/EECS249-Smart-Pill-Organizer/pico-sdk/src/rp2_common/pico_standard_link/new_delete.cpp.obj
 .ARM.attributes
                0x0000000000000000       0x32 CMakeFiles/SPO.dir/mnt/c/study/GRAD/249A/proj/EECS249-Smart-Pill-Organizer/pico-sdk/src/rp2_common/pico_standard_link/new_delete.cpp.obj
 .text          0x0000000000000000        0x0 CMakeFiles/SPO.dir/mnt/c/study/GRAD/249A/proj/EECS249-Smart-Pill-Organizer/pico-sdk/src/rp2_common/pico_standard_link/binary_info.c.obj
 .data          0x0000000000000000        0x0 CMakeFiles/SPO.dir/mnt/c/study/GRAD/249A/proj/EECS249-Smart-Pill-Organizer/pico-sdk/src/rp2_common/pico_standard_link/binary_info.c.obj
 .bss           0x0000000000000000        0x0 CMakeFiles/SPO.dir/mnt/c/study/GRAD/249A/proj/EECS249-Smart-Pill-Organizer/pico-sdk/src/rp2_common/pico_standard_link/binary_info.c.obj
 .text          0x0000000000000000        0x0 CMakeFiles/SPO.dir/mnt/c/study/GRAD/249A/proj/EECS249-Smart-Pill-Organizer/pico-sdk/src/rp2_common/pico_stdio/stdio.c.obj
 .data          0x0000000000000000        0x0 CMakeFiles/SPO.dir/mnt/c/study/GRAD/249A/proj/EECS249-Smart-Pill-Organizer/pico-sdk/src/rp2_common/pico_stdio/stdio.c.obj
 .bss           0x0000000000000000        0x0 CMakeFiles/SPO.dir/mnt/c/study/GRAD/249A/proj/EECS249-Smart-Pill-Organizer/pico-sdk/src/rp2_common/pico_stdio/stdio.c.obj
 .text.stdio_out_chars_no_crlf
                0x0000000000000000       0x10 CMakeFiles/SPO.dir/mnt/c/study/GRAD/249A/proj/EECS249-Smart-Pill-Organizer/pico-sdk/src/rp2_common/pico_stdio/stdio.c.obj
 .text.stdout_serialize_begin
                0x0000000000000000       0x30 CMakeFiles/SPO.dir/mnt/c/study/GRAD/249A/proj/EECS249-Smart-Pill-Organizer/pico-sdk/src/rp2_common/pico_stdio/stdio.c.obj
 .text.stdout_serialize_end
                0x0000000000000000       0x10 CMakeFiles/SPO.dir/mnt/c/study/GRAD/249A/proj/EECS249-Smart-Pill-Organizer/pico-sdk/src/rp2_common/pico_stdio/stdio.c.obj
 .text.__wrap_putchar
                0x0000000000000000       0x98 CMakeFiles/SPO.dir/mnt/c/study/GRAD/249A/proj/EECS249-Smart-Pill-Organizer/pico-sdk/src/rp2_common/pico_stdio/stdio.c.obj
 .text.putchar_raw
                0x0000000000000000       0x98 CMakeFiles/SPO.dir/mnt/c/study/GRAD/249A/proj/EECS249-Smart-Pill-Organizer/pico-sdk/src/rp2_common/pico_stdio/stdio.c.obj
 .text.puts_raw
                0x0000000000000000       0xdc CMakeFiles/SPO.dir/mnt/c/study/GRAD/249A/proj/EECS249-Smart-Pill-Organizer/pico-sdk/src/rp2_common/pico_stdio/stdio.c.obj
 .text.stdio_flush
                0x0000000000000000       0x20 CMakeFiles/SPO.dir/mnt/c/study/GRAD/249A/proj/EECS249-Smart-Pill-Organizer/pico-sdk/src/rp2_common/pico_stdio/stdio.c.obj
 .text.__wrap_getchar
                0x0000000000000000       0x74 CMakeFiles/SPO.dir/mnt/c/study/GRAD/249A/proj/EECS249-Smart-Pill-Organizer/pico-sdk/src/rp2_common/pico_stdio/stdio.c.obj
 .text.getchar_timeout_us
                0x0000000000000000       0x98 CMakeFiles/SPO.dir/mnt/c/study/GRAD/249A/proj/EECS249-Smart-Pill-Organizer/pico-sdk/src/rp2_common/pico_stdio/stdio.c.obj
 .text.stdio_filter_driver
                0x0000000000000000        0xc CMakeFiles/SPO.dir/mnt/c/study/GRAD/249A/proj/EECS249-Smart-Pill-Organizer/pico-sdk/src/rp2_common/pico_stdio/stdio.c.obj
 .text.stdio_set_translate_crlf
                0x0000000000000000       0x10 CMakeFiles/SPO.dir/mnt/c/study/GRAD/249A/proj/EECS249-Smart-Pill-Organizer/pico-sdk/src/rp2_common/pico_stdio/stdio.c.obj
 .text          0x0000000000000000        0x0 CMakeFiles/SPO.dir/mnt/c/study/GRAD/249A/proj/EECS249-Smart-Pill-Organizer/pico-sdk/src/rp2_common/pico_stdio_uart/stdio_uart.c.obj
 .data          0x0000000000000000        0x0 CMakeFiles/SPO.dir/mnt/c/study/GRAD/249A/proj/EECS249-Smart-Pill-Organizer/pico-sdk/src/rp2_common/pico_stdio_uart/stdio_uart.c.obj
 .bss           0x0000000000000000        0x0 CMakeFiles/SPO.dir/mnt/c/study/GRAD/249A/proj/EECS249-Smart-Pill-Organizer/pico-sdk/src/rp2_common/pico_stdio_uart/stdio_uart.c.obj
 .text.stdout_uart_init
                0x0000000000000000       0x40 CMakeFiles/SPO.dir/mnt/c/study/GRAD/249A/proj/EECS249-Smart-Pill-Organizer/pico-sdk/src/rp2_common/pico_stdio_uart/stdio_uart.c.obj
 .text.stdin_uart_init
                0x0000000000000000       0x40 CMakeFiles/SPO.dir/mnt/c/study/GRAD/249A/proj/EECS249-Smart-Pill-Organizer/pico-sdk/src/rp2_common/pico_stdio_uart/stdio_uart.c.obj
 .text.stdio_uart_init_full
                0x0000000000000000       0x38 CMakeFiles/SPO.dir/mnt/c/study/GRAD/249A/proj/EECS249-Smart-Pill-Organizer/pico-sdk/src/rp2_common/pico_stdio_uart/stdio_uart.c.obj
 .binary_info.__bi_ptr49
                0x0000000000000000        0x4 CMakeFiles/SPO.dir/mnt/c/study/GRAD/249A/proj/EECS249-Smart-Pill-Organizer/pico-sdk/src/rp2_common/pico_stdio_uart/stdio_uart.c.obj
 .binary_info.__bi_ptr53
                0x0000000000000000        0x4 CMakeFiles/SPO.dir/mnt/c/study/GRAD/249A/proj/EECS249-Smart-Pill-Organizer/pico-sdk/src/rp2_common/pico_stdio_uart/stdio_uart.c.obj
 .binary_info.__bi_ptr61
                0x0000000000000000        0x4 CMakeFiles/SPO.dir/mnt/c/study/GRAD/249A/proj/EECS249-Smart-Pill-Organizer/pico-sdk/src/rp2_common/pico_stdio_uart/stdio_uart.c.obj
 .binary_info.__bi_ptr65
                0x0000000000000000        0x4 CMakeFiles/SPO.dir/mnt/c/study/GRAD/249A/proj/EECS249-Smart-Pill-Organizer/pico-sdk/src/rp2_common/pico_stdio_uart/stdio_uart.c.obj
 .rodata.__bi_49.4732
                0x0000000000000000        0x8 CMakeFiles/SPO.dir/mnt/c/study/GRAD/249A/proj/EECS249-Smart-Pill-Organizer/pico-sdk/src/rp2_common/pico_stdio_uart/stdio_uart.c.obj
 .rodata.__bi_53.4736
                0x0000000000000000        0xc CMakeFiles/SPO.dir/mnt/c/study/GRAD/249A/proj/EECS249-Smart-Pill-Organizer/pico-sdk/src/rp2_common/pico_stdio_uart/stdio_uart.c.obj
 .rodata.__bi_61.4742
                0x0000000000000000        0x8 CMakeFiles/SPO.dir/mnt/c/study/GRAD/249A/proj/EECS249-Smart-Pill-Organizer/pico-sdk/src/rp2_common/pico_stdio_uart/stdio_uart.c.obj
 .rodata.__bi_65.4746
                0x0000000000000000        0xc CMakeFiles/SPO.dir/mnt/c/study/GRAD/249A/proj/EECS249-Smart-Pill-Organizer/pico-sdk/src/rp2_common/pico_stdio_uart/stdio_uart.c.obj
 .text          0x0000000000000000        0x0 /tmp/ccgx0QTb.o
 .data          0x0000000000000000        0x0 /tmp/ccgx0QTb.o
 .bss           0x0000000000000000        0x0 /tmp/ccgx0QTb.o
 .data          0x0000000000000000        0x0 /usr/lib/gcc/arm-none-eabi/6.3.1/thumb/v6-m/libgcc.a(_dvmd_tls.o)
 .bss           0x0000000000000000        0x0 /usr/lib/gcc/arm-none-eabi/6.3.1/thumb/v6-m/libgcc.a(_dvmd_tls.o)
 .data          0x0000000000000000        0x0 /usr/lib/gcc/arm-none-eabi/6.3.1/../../../arm-none-eabi/lib/thumb/v6-m/libc.a(lib_a-atexit.o)
 .bss           0x0000000000000000        0x0 /usr/lib/gcc/arm-none-eabi/6.3.1/../../../arm-none-eabi/lib/thumb/v6-m/libc.a(lib_a-atexit.o)
 .data          0x0000000000000000        0x0 /usr/lib/gcc/arm-none-eabi/6.3.1/../../../arm-none-eabi/lib/thumb/v6-m/libc.a(lib_a-atoi.o)
 .bss           0x0000000000000000        0x0 /usr/lib/gcc/arm-none-eabi/6.3.1/../../../arm-none-eabi/lib/thumb/v6-m/libc.a(lib_a-atoi.o)
 .data          0x0000000000000000        0x0 /usr/lib/gcc/arm-none-eabi/6.3.1/../../../arm-none-eabi/lib/thumb/v6-m/libc.a(lib_a-atoll.o)
 .bss           0x0000000000000000        0x0 /usr/lib/gcc/arm-none-eabi/6.3.1/../../../arm-none-eabi/lib/thumb/v6-m/libc.a(lib_a-atoll.o)
 .data          0x0000000000000000        0x0 /usr/lib/gcc/arm-none-eabi/6.3.1/../../../arm-none-eabi/lib/thumb/v6-m/libc.a(lib_a-calloc.o)
 .bss           0x0000000000000000        0x0 /usr/lib/gcc/arm-none-eabi/6.3.1/../../../arm-none-eabi/lib/thumb/v6-m/libc.a(lib_a-calloc.o)
 .data          0x0000000000000000        0x0 /usr/lib/gcc/arm-none-eabi/6.3.1/../../../arm-none-eabi/lib/thumb/v6-m/libc.a(lib_a-callocr.o)
 .bss           0x0000000000000000        0x0 /usr/lib/gcc/arm-none-eabi/6.3.1/../../../arm-none-eabi/lib/thumb/v6-m/libc.a(lib_a-callocr.o)
 .data          0x0000000000000000        0x0 /usr/lib/gcc/arm-none-eabi/6.3.1/../../../arm-none-eabi/lib/thumb/v6-m/libc.a(lib_a-ctime.o)
 .bss           0x0000000000000000        0x0 /usr/lib/gcc/arm-none-eabi/6.3.1/../../../arm-none-eabi/lib/thumb/v6-m/libc.a(lib_a-ctime.o)
 .text          0x0000000000000000       0x34 /usr/lib/gcc/arm-none-eabi/6.3.1/../../../arm-none-eabi/lib/thumb/v6-m/libc.a(lib_a-fini.o)
 .data          0x0000000000000000        0x0 /usr/lib/gcc/arm-none-eabi/6.3.1/../../../arm-none-eabi/lib/thumb/v6-m/libc.a(lib_a-fini.o)
 .bss           0x0000000000000000        0x0 /usr/lib/gcc/arm-none-eabi/6.3.1/../../../arm-none-eabi/lib/thumb/v6-m/libc.a(lib_a-fini.o)
 .debug_info    0x0000000000000000       0xfa /usr/lib/gcc/arm-none-eabi/6.3.1/../../../arm-none-eabi/lib/thumb/v6-m/libc.a(lib_a-fini.o)
 .debug_abbrev  0x0000000000000000       0xba /usr/lib/gcc/arm-none-eabi/6.3.1/../../../arm-none-eabi/lib/thumb/v6-m/libc.a(lib_a-fini.o)
 .debug_loc     0x0000000000000000       0x3e /usr/lib/gcc/arm-none-eabi/6.3.1/../../../arm-none-eabi/lib/thumb/v6-m/libc.a(lib_a-fini.o)
 .debug_aranges
                0x0000000000000000       0x20 /usr/lib/gcc/arm-none-eabi/6.3.1/../../../arm-none-eabi/lib/thumb/v6-m/libc.a(lib_a-fini.o)
 .debug_line    0x0000000000000000       0x9f /usr/lib/gcc/arm-none-eabi/6.3.1/../../../arm-none-eabi/lib/thumb/v6-m/libc.a(lib_a-fini.o)
 .debug_str     0x0000000000000000      0x1ca /usr/lib/gcc/arm-none-eabi/6.3.1/../../../arm-none-eabi/lib/thumb/v6-m/libc.a(lib_a-fini.o)
 .comment       0x0000000000000000       0x32 /usr/lib/gcc/arm-none-eabi/6.3.1/../../../arm-none-eabi/lib/thumb/v6-m/libc.a(lib_a-fini.o)
 .debug_frame   0x0000000000000000       0x2c /usr/lib/gcc/arm-none-eabi/6.3.1/../../../arm-none-eabi/lib/thumb/v6-m/libc.a(lib_a-fini.o)
 .ARM.attributes
                0x0000000000000000       0x2c /usr/lib/gcc/arm-none-eabi/6.3.1/../../../arm-none-eabi/lib/thumb/v6-m/libc.a(lib_a-fini.o)
 .text          0x0000000000000000        0x0 /usr/lib/gcc/arm-none-eabi/6.3.1/../../../arm-none-eabi/lib/thumb/v6-m/libc.a(lib_a-impure.o)
 .bss           0x0000000000000000        0x0 /usr/lib/gcc/arm-none-eabi/6.3.1/../../../arm-none-eabi/lib/thumb/v6-m/libc.a(lib_a-impure.o)
 .text          0x0000000000000000       0x48 /usr/lib/gcc/arm-none-eabi/6.3.1/../../../arm-none-eabi/lib/thumb/v6-m/libc.a(lib_a-init.o)
 .data          0x0000000000000000        0x0 /usr/lib/gcc/arm-none-eabi/6.3.1/../../../arm-none-eabi/lib/thumb/v6-m/libc.a(lib_a-init.o)
 .bss           0x0000000000000000        0x0 /usr/lib/gcc/arm-none-eabi/6.3.1/../../../arm-none-eabi/lib/thumb/v6-m/libc.a(lib_a-init.o)
 .debug_info    0x0000000000000000      0x110 /usr/lib/gcc/arm-none-eabi/6.3.1/../../../arm-none-eabi/lib/thumb/v6-m/libc.a(lib_a-init.o)
 .debug_abbrev  0x0000000000000000       0xba /usr/lib/gcc/arm-none-eabi/6.3.1/../../../arm-none-eabi/lib/thumb/v6-m/libc.a(lib_a-init.o)
 .debug_loc     0x0000000000000000       0x84 /usr/lib/gcc/arm-none-eabi/6.3.1/../../../arm-none-eabi/lib/thumb/v6-m/libc.a(lib_a-init.o)
 .debug_aranges
                0x0000000000000000       0x20 /usr/lib/gcc/arm-none-eabi/6.3.1/../../../arm-none-eabi/lib/thumb/v6-m/libc.a(lib_a-init.o)
 .debug_line    0x0000000000000000       0xc3 /usr/lib/gcc/arm-none-eabi/6.3.1/../../../arm-none-eabi/lib/thumb/v6-m/libc.a(lib_a-init.o)
 .debug_str     0x0000000000000000      0x1f4 /usr/lib/gcc/arm-none-eabi/6.3.1/../../../arm-none-eabi/lib/thumb/v6-m/libc.a(lib_a-init.o)
 .comment       0x0000000000000000       0x32 /usr/lib/gcc/arm-none-eabi/6.3.1/../../../arm-none-eabi/lib/thumb/v6-m/libc.a(lib_a-init.o)
 .debug_frame   0x0000000000000000       0x2c /usr/lib/gcc/arm-none-eabi/6.3.1/../../../arm-none-eabi/lib/thumb/v6-m/libc.a(lib_a-init.o)
 .ARM.attributes
                0x0000000000000000       0x2c /usr/lib/gcc/arm-none-eabi/6.3.1/../../../arm-none-eabi/lib/thumb/v6-m/libc.a(lib_a-init.o)
 .data          0x0000000000000000        0x0 /usr/lib/gcc/arm-none-eabi/6.3.1/../../../arm-none-eabi/lib/thumb/v6-m/libc.a(lib_a-lcltime.o)
 .bss           0x0000000000000000        0x0 /usr/lib/gcc/arm-none-eabi/6.3.1/../../../arm-none-eabi/lib/thumb/v6-m/libc.a(lib_a-lcltime.o)
 .data          0x0000000000000000        0x0 /usr/lib/gcc/arm-none-eabi/6.3.1/../../../arm-none-eabi/lib/thumb/v6-m/libc.a(lib_a-lcltime_r.o)
 .bss           0x0000000000000000        0x0 /usr/lib/gcc/arm-none-eabi/6.3.1/../../../arm-none-eabi/lib/thumb/v6-m/libc.a(lib_a-lcltime_r.o)
 .data          0x0000000000000000        0x0 /usr/lib/gcc/arm-none-eabi/6.3.1/../../../arm-none-eabi/lib/thumb/v6-m/libc.a(lib_a-malloc.o)
 .bss           0x0000000000000000        0x0 /usr/lib/gcc/arm-none-eabi/6.3.1/../../../arm-none-eabi/lib/thumb/v6-m/libc.a(lib_a-malloc.o)
 .data          0x0000000000000000        0x0 /usr/lib/gcc/arm-none-eabi/6.3.1/../../../arm-none-eabi/lib/thumb/v6-m/libc.a(lib_a-mlock.o)
 .bss           0x0000000000000000        0x0 /usr/lib/gcc/arm-none-eabi/6.3.1/../../../arm-none-eabi/lib/thumb/v6-m/libc.a(lib_a-mlock.o)
 .text          0x0000000000000000        0x0 /usr/lib/gcc/arm-none-eabi/6.3.1/../../../arm-none-eabi/lib/thumb/v6-m/libc.a(lib_a-month_lengths.o)
 .data          0x0000000000000000        0x0 /usr/lib/gcc/arm-none-eabi/6.3.1/../../../arm-none-eabi/lib/thumb/v6-m/libc.a(lib_a-month_lengths.o)
 .bss           0x0000000000000000        0x0 /usr/lib/gcc/arm-none-eabi/6.3.1/../../../arm-none-eabi/lib/thumb/v6-m/libc.a(lib_a-month_lengths.o)
 .data          0x0000000000000000        0x0 /usr/lib/gcc/arm-none-eabi/6.3.1/../../../arm-none-eabi/lib/thumb/v6-m/libc.a(lib_a-realloc.o)
 .bss           0x0000000000000000        0x0 /usr/lib/gcc/arm-none-eabi/6.3.1/../../../arm-none-eabi/lib/thumb/v6-m/libc.a(lib_a-realloc.o)
 .data          0x0000000000000000        0x0 /usr/lib/gcc/arm-none-eabi/6.3.1/../../../arm-none-eabi/lib/thumb/v6-m/libc.a(lib_a-reallocr.o)
 .bss           0x0000000000000000        0x0 /usr/lib/gcc/arm-none-eabi/6.3.1/../../../arm-none-eabi/lib/thumb/v6-m/libc.a(lib_a-reallocr.o)
 .data          0x0000000000000000        0x0 /usr/lib/gcc/arm-none-eabi/6.3.1/../../../arm-none-eabi/lib/thumb/v6-m/libc.a(lib_a-sbrkr.o)
 .bss           0x0000000000000000        0x0 /usr/lib/gcc/arm-none-eabi/6.3.1/../../../arm-none-eabi/lib/thumb/v6-m/libc.a(lib_a-sbrkr.o)
 .data          0x0000000000000000        0x0 /usr/lib/gcc/arm-none-eabi/6.3.1/../../../arm-none-eabi/lib/thumb/v6-m/libc.a(lib_a-signal.o)
 .bss           0x0000000000000000        0x0 /usr/lib/gcc/arm-none-eabi/6.3.1/../../../arm-none-eabi/lib/thumb/v6-m/libc.a(lib_a-signal.o)
 .data          0x0000000000000000        0x0 /usr/lib/gcc/arm-none-eabi/6.3.1/../../../arm-none-eabi/lib/thumb/v6-m/libc.a(lib_a-signalr.o)
 .bss           0x0000000000000000        0x0 /usr/lib/gcc/arm-none-eabi/6.3.1/../../../arm-none-eabi/lib/thumb/v6-m/libc.a(lib_a-signalr.o)
 .data          0x0000000000000000        0x0 /usr/lib/gcc/arm-none-eabi/6.3.1/../../../arm-none-eabi/lib/thumb/v6-m/libc.a(lib_a-strcmp.o)
 .bss           0x0000000000000000        0x0 /usr/lib/gcc/arm-none-eabi/6.3.1/../../../arm-none-eabi/lib/thumb/v6-m/libc.a(lib_a-strcmp.o)
 .data          0x0000000000000000        0x0 /usr/lib/gcc/arm-none-eabi/6.3.1/../../../arm-none-eabi/lib/thumb/v6-m/libc.a(lib_a-strlen-stub.o)
 .bss           0x0000000000000000        0x0 /usr/lib/gcc/arm-none-eabi/6.3.1/../../../arm-none-eabi/lib/thumb/v6-m/libc.a(lib_a-strlen-stub.o)
 .data          0x0000000000000000        0x0 /usr/lib/gcc/arm-none-eabi/6.3.1/../../../arm-none-eabi/lib/thumb/v6-m/libc.a(lib_a-strncmp.o)
 .bss           0x0000000000000000        0x0 /usr/lib/gcc/arm-none-eabi/6.3.1/../../../arm-none-eabi/lib/thumb/v6-m/libc.a(lib_a-strncmp.o)
 .data          0x0000000000000000        0x0 /usr/lib/gcc/arm-none-eabi/6.3.1/../../../arm-none-eabi/lib/thumb/v6-m/libc.a(lib_a-strtol.o)
 .bss           0x0000000000000000        0x0 /usr/lib/gcc/arm-none-eabi/6.3.1/../../../arm-none-eabi/lib/thumb/v6-m/libc.a(lib_a-strtol.o)
 .data          0x0000000000000000        0x0 /usr/lib/gcc/arm-none-eabi/6.3.1/../../../arm-none-eabi/lib/thumb/v6-m/libc.a(lib_a-strtoll.o)
 .bss           0x0000000000000000        0x0 /usr/lib/gcc/arm-none-eabi/6.3.1/../../../arm-none-eabi/lib/thumb/v6-m/libc.a(lib_a-strtoll.o)
 .data          0x0000000000000000        0x0 /usr/lib/gcc/arm-none-eabi/6.3.1/../../../arm-none-eabi/lib/thumb/v6-m/libc.a(lib_a-strtoll_r.o)
 .bss           0x0000000000000000        0x0 /usr/lib/gcc/arm-none-eabi/6.3.1/../../../arm-none-eabi/lib/thumb/v6-m/libc.a(lib_a-strtoll_r.o)
 .data          0x0000000000000000        0x0 /usr/lib/gcc/arm-none-eabi/6.3.1/../../../arm-none-eabi/lib/thumb/v6-m/libc.a(lib_a-tzcalc_limits.o)
 .bss           0x0000000000000000        0x0 /usr/lib/gcc/arm-none-eabi/6.3.1/../../../arm-none-eabi/lib/thumb/v6-m/libc.a(lib_a-tzcalc_limits.o)
 .data          0x0000000000000000        0x0 /usr/lib/gcc/arm-none-eabi/6.3.1/../../../arm-none-eabi/lib/thumb/v6-m/libc.a(lib_a-tzlock.o)
 .bss           0x0000000000000000        0x0 /usr/lib/gcc/arm-none-eabi/6.3.1/../../../arm-none-eabi/lib/thumb/v6-m/libc.a(lib_a-tzlock.o)
 .data          0x0000000000000000        0x0 /usr/lib/gcc/arm-none-eabi/6.3.1/../../../arm-none-eabi/lib/thumb/v6-m/libc.a(lib_a-tzset.o)
 .bss           0x0000000000000000        0x0 /usr/lib/gcc/arm-none-eabi/6.3.1/../../../arm-none-eabi/lib/thumb/v6-m/libc.a(lib_a-tzset.o)
 .data          0x0000000000000000        0x0 /usr/lib/gcc/arm-none-eabi/6.3.1/../../../arm-none-eabi/lib/thumb/v6-m/libc.a(lib_a-tzset_r.o)
 .text          0x0000000000000000        0x0 /usr/lib/gcc/arm-none-eabi/6.3.1/../../../arm-none-eabi/lib/thumb/v6-m/libc.a(lib_a-tzvars.o)
 .data          0x0000000000000000        0x0 /usr/lib/gcc/arm-none-eabi/6.3.1/../../../arm-none-eabi/lib/thumb/v6-m/libc.a(lib_a-vfprintf.o)
 .bss           0x0000000000000000        0x0 /usr/lib/gcc/arm-none-eabi/6.3.1/../../../arm-none-eabi/lib/thumb/v6-m/libc.a(lib_a-vfprintf.o)
 .data          0x0000000000000000        0x0 /usr/lib/gcc/arm-none-eabi/6.3.1/../../../arm-none-eabi/lib/thumb/v6-m/libc.a(lib_a-wbuf.o)
 .bss           0x0000000000000000        0x0 /usr/lib/gcc/arm-none-eabi/6.3.1/../../../arm-none-eabi/lib/thumb/v6-m/libc.a(lib_a-wbuf.o)
 .data          0x0000000000000000        0x0 /usr/lib/gcc/arm-none-eabi/6.3.1/../../../arm-none-eabi/lib/thumb/v6-m/libc.a(lib_a-wsetup.o)
 .bss           0x0000000000000000        0x0 /usr/lib/gcc/arm-none-eabi/6.3.1/../../../arm-none-eabi/lib/thumb/v6-m/libc.a(lib_a-wsetup.o)
 .data          0x0000000000000000        0x0 /usr/lib/gcc/arm-none-eabi/6.3.1/../../../arm-none-eabi/lib/thumb/v6-m/libc.a(lib_a-__atexit.o)
 .bss           0x0000000000000000        0x0 /usr/lib/gcc/arm-none-eabi/6.3.1/../../../arm-none-eabi/lib/thumb/v6-m/libc.a(lib_a-__atexit.o)
 .data          0x0000000000000000        0x0 /usr/lib/gcc/arm-none-eabi/6.3.1/../../../arm-none-eabi/lib/thumb/v6-m/libc.a(lib_a-asctime.o)
 .bss           0x0000000000000000        0x0 /usr/lib/gcc/arm-none-eabi/6.3.1/../../../arm-none-eabi/lib/thumb/v6-m/libc.a(lib_a-asctime.o)
 .data          0x0000000000000000        0x0 /usr/lib/gcc/arm-none-eabi/6.3.1/../../../arm-none-eabi/lib/thumb/v6-m/libc.a(lib_a-asctime_r.o)
 .bss           0x0000000000000000        0x0 /usr/lib/gcc/arm-none-eabi/6.3.1/../../../arm-none-eabi/lib/thumb/v6-m/libc.a(lib_a-asctime_r.o)
 .text          0x0000000000000000        0x0 /usr/lib/gcc/arm-none-eabi/6.3.1/../../../arm-none-eabi/lib/thumb/v6-m/libc.a(lib_a-ctype_.o)
 .bss           0x0000000000000000        0x0 /usr/lib/gcc/arm-none-eabi/6.3.1/../../../arm-none-eabi/lib/thumb/v6-m/libc.a(lib_a-ctype_.o)
 .data          0x0000000000000000        0x0 /usr/lib/gcc/arm-none-eabi/6.3.1/../../../arm-none-eabi/lib/thumb/v6-m/libc.a(lib_a-dtoa.o)
 .bss           0x0000000000000000        0x0 /usr/lib/gcc/arm-none-eabi/6.3.1/../../../arm-none-eabi/lib/thumb/v6-m/libc.a(lib_a-dtoa.o)
 .data          0x0000000000000000        0x0 /usr/lib/gcc/arm-none-eabi/6.3.1/../../../arm-none-eabi/lib/thumb/v6-m/libc.a(lib_a-fflush.o)
 .bss           0x0000000000000000        0x0 /usr/lib/gcc/arm-none-eabi/6.3.1/../../../arm-none-eabi/lib/thumb/v6-m/libc.a(lib_a-fflush.o)
 .data          0x0000000000000000        0x0 /usr/lib/gcc/arm-none-eabi/6.3.1/../../../arm-none-eabi/lib/thumb/v6-m/libc.a(lib_a-findfp.o)
 .bss           0x0000000000000000        0x0 /usr/lib/gcc/arm-none-eabi/6.3.1/../../../arm-none-eabi/lib/thumb/v6-m/libc.a(lib_a-findfp.o)
 .data          0x0000000000000000        0x0 /usr/lib/gcc/arm-none-eabi/6.3.1/../../../arm-none-eabi/lib/thumb/v6-m/libc.a(lib_a-freer.o)
 .bss           0x0000000000000000        0x0 /usr/lib/gcc/arm-none-eabi/6.3.1/../../../arm-none-eabi/lib/thumb/v6-m/libc.a(lib_a-freer.o)
 .data          0x0000000000000000        0x0 /usr/lib/gcc/arm-none-eabi/6.3.1/../../../arm-none-eabi/lib/thumb/v6-m/libc.a(lib_a-fwalk.o)
 .bss           0x0000000000000000        0x0 /usr/lib/gcc/arm-none-eabi/6.3.1/../../../arm-none-eabi/lib/thumb/v6-m/libc.a(lib_a-fwalk.o)
 .data          0x0000000000000000        0x0 /usr/lib/gcc/arm-none-eabi/6.3.1/../../../arm-none-eabi/lib/thumb/v6-m/libc.a(lib_a-getenv_r.o)
 .bss           0x0000000000000000        0x0 /usr/lib/gcc/arm-none-eabi/6.3.1/../../../arm-none-eabi/lib/thumb/v6-m/libc.a(lib_a-getenv_r.o)
 .bss           0x0000000000000000        0x0 /usr/lib/gcc/arm-none-eabi/6.3.1/../../../arm-none-eabi/lib/thumb/v6-m/libc.a(lib_a-gettzinfo.o)
 .data          0x0000000000000000        0x0 /usr/lib/gcc/arm-none-eabi/6.3.1/../../../arm-none-eabi/lib/thumb/v6-m/libc.a(lib_a-gmtime_r.o)
 .bss           0x0000000000000000        0x0 /usr/lib/gcc/arm-none-eabi/6.3.1/../../../arm-none-eabi/lib/thumb/v6-m/libc.a(lib_a-gmtime_r.o)
 .bss           0x0000000000000000        0xc /usr/lib/gcc/arm-none-eabi/6.3.1/../../../arm-none-eabi/lib/thumb/v6-m/libc.a(lib_a-locale.o)
 .data          0x0000000000000000        0x0 /usr/lib/gcc/arm-none-eabi/6.3.1/../../../arm-none-eabi/lib/thumb/v6-m/libc.a(lib_a-makebuf.o)
 .bss           0x0000000000000000        0x0 /usr/lib/gcc/arm-none-eabi/6.3.1/../../../arm-none-eabi/lib/thumb/v6-m/libc.a(lib_a-makebuf.o)
 .data          0x0000000000000000        0x0 /usr/lib/gcc/arm-none-eabi/6.3.1/../../../arm-none-eabi/lib/thumb/v6-m/libc.a(lib_a-memchr-stub.o)
 .bss           0x0000000000000000        0x0 /usr/lib/gcc/arm-none-eabi/6.3.1/../../../arm-none-eabi/lib/thumb/v6-m/libc.a(lib_a-memchr-stub.o)
 .data          0x0000000000000000        0x0 /usr/lib/gcc/arm-none-eabi/6.3.1/../../../arm-none-eabi/lib/thumb/v6-m/libc.a(lib_a-memmove.o)
 .bss           0x0000000000000000        0x0 /usr/lib/gcc/arm-none-eabi/6.3.1/../../../arm-none-eabi/lib/thumb/v6-m/libc.a(lib_a-memmove.o)
 .data          0x0000000000000000        0x0 /usr/lib/gcc/arm-none-eabi/6.3.1/../../../arm-none-eabi/lib/thumb/v6-m/libc.a(lib_a-mprec.o)
 .bss           0x0000000000000000        0x0 /usr/lib/gcc/arm-none-eabi/6.3.1/../../../arm-none-eabi/lib/thumb/v6-m/libc.a(lib_a-mprec.o)
 .text          0x0000000000000000       0xb0 /usr/lib/gcc/arm-none-eabi/6.3.1/../../../arm-none-eabi/lib/thumb/v6-m/libc.a(lib_a-reent.o)
 .data          0x0000000000000000        0x0 /usr/lib/gcc/arm-none-eabi/6.3.1/../../../arm-none-eabi/lib/thumb/v6-m/libc.a(lib_a-reent.o)
 .bss           0x0000000000000000        0x0 /usr/lib/gcc/arm-none-eabi/6.3.1/../../../arm-none-eabi/lib/thumb/v6-m/libc.a(lib_a-reent.o)
 .data          0x0000000000000000        0x0 /usr/lib/gcc/arm-none-eabi/6.3.1/../../../arm-none-eabi/lib/thumb/v6-m/libc.a(lib_a-siprintf.o)
 .bss           0x0000000000000000        0x0 /usr/lib/gcc/arm-none-eabi/6.3.1/../../../arm-none-eabi/lib/thumb/v6-m/libc.a(lib_a-siprintf.o)
 .data          0x0000000000000000        0x0 /usr/lib/gcc/arm-none-eabi/6.3.1/../../../arm-none-eabi/lib/thumb/v6-m/libc.a(lib_a-siscanf.o)
 .bss           0x0000000000000000        0x0 /usr/lib/gcc/arm-none-eabi/6.3.1/../../../arm-none-eabi/lib/thumb/v6-m/libc.a(lib_a-siscanf.o)
 .data          0x0000000000000000        0x0 /usr/lib/gcc/arm-none-eabi/6.3.1/../../../arm-none-eabi/lib/thumb/v6-m/libc.a(lib_a-stdio.o)
 .bss           0x0000000000000000        0x0 /usr/lib/gcc/arm-none-eabi/6.3.1/../../../arm-none-eabi/lib/thumb/v6-m/libc.a(lib_a-stdio.o)
 .data          0x0000000000000000        0x0 /usr/lib/gcc/arm-none-eabi/6.3.1/../../../arm-none-eabi/lib/thumb/v6-m/libc.a(lib_a-strcpy.o)
 .bss           0x0000000000000000        0x0 /usr/lib/gcc/arm-none-eabi/6.3.1/../../../arm-none-eabi/lib/thumb/v6-m/libc.a(lib_a-strcpy.o)
 .data          0x0000000000000000        0x0 /usr/lib/gcc/arm-none-eabi/6.3.1/../../../arm-none-eabi/lib/thumb/v6-m/libc.a(lib_a-strtoul.o)
 .bss           0x0000000000000000        0x0 /usr/lib/gcc/arm-none-eabi/6.3.1/../../../arm-none-eabi/lib/thumb/v6-m/libc.a(lib_a-strtoul.o)
 .data          0x0000000000000000        0x0 /usr/lib/gcc/arm-none-eabi/6.3.1/../../../arm-none-eabi/lib/thumb/v6-m/libc.a(lib_a-svfiprintf.o)
 .bss           0x0000000000000000        0x0 /usr/lib/gcc/arm-none-eabi/6.3.1/../../../arm-none-eabi/lib/thumb/v6-m/libc.a(lib_a-svfiprintf.o)
 .data          0x0000000000000000        0x0 /usr/lib/gcc/arm-none-eabi/6.3.1/../../../arm-none-eabi/lib/thumb/v6-m/libc.a(lib_a-svfiscanf.o)
 .bss           0x0000000000000000        0x0 /usr/lib/gcc/arm-none-eabi/6.3.1/../../../arm-none-eabi/lib/thumb/v6-m/libc.a(lib_a-svfiscanf.o)
 .data          0x0000000000000000        0x0 /usr/lib/gcc/arm-none-eabi/6.3.1/../../../arm-none-eabi/lib/thumb/v6-m/libc.a(lib_a-ungetc.o)
 .bss           0x0000000000000000        0x0 /usr/lib/gcc/arm-none-eabi/6.3.1/../../../arm-none-eabi/lib/thumb/v6-m/libc.a(lib_a-ungetc.o)
 .data          0x0000000000000000        0x0 /usr/lib/gcc/arm-none-eabi/6.3.1/../../../arm-none-eabi/lib/thumb/v6-m/libc.a(lib_a-vfiprintf.o)
 .bss           0x0000000000000000        0x0 /usr/lib/gcc/arm-none-eabi/6.3.1/../../../arm-none-eabi/lib/thumb/v6-m/libc.a(lib_a-vfiprintf.o)
 .data          0x0000000000000000        0x0 /usr/lib/gcc/arm-none-eabi/6.3.1/../../../arm-none-eabi/lib/thumb/v6-m/libc.a(lib_a-writer.o)
 .bss           0x0000000000000000        0x0 /usr/lib/gcc/arm-none-eabi/6.3.1/../../../arm-none-eabi/lib/thumb/v6-m/libc.a(lib_a-writer.o)
 .data          0x0000000000000000        0x0 /usr/lib/gcc/arm-none-eabi/6.3.1/../../../arm-none-eabi/lib/thumb/v6-m/libc.a(lib_a-closer.o)
 .bss           0x0000000000000000        0x0 /usr/lib/gcc/arm-none-eabi/6.3.1/../../../arm-none-eabi/lib/thumb/v6-m/libc.a(lib_a-closer.o)
 .text          0x0000000000000000        0x0 /usr/lib/gcc/arm-none-eabi/6.3.1/../../../arm-none-eabi/lib/thumb/v6-m/libc.a(lib_a-environ.o)
 .data          0x0000000000000000        0x0 /usr/lib/gcc/arm-none-eabi/6.3.1/../../../arm-none-eabi/lib/thumb/v6-m/libc.a(lib_a-envlock.o)
 .bss           0x0000000000000000        0x0 /usr/lib/gcc/arm-none-eabi/6.3.1/../../../arm-none-eabi/lib/thumb/v6-m/libc.a(lib_a-envlock.o)
 .data          0x0000000000000000        0x0 /usr/lib/gcc/arm-none-eabi/6.3.1/../../../arm-none-eabi/lib/thumb/v6-m/libc.a(lib_a-fclose.o)
 .bss           0x0000000000000000        0x0 /usr/lib/gcc/arm-none-eabi/6.3.1/../../../arm-none-eabi/lib/thumb/v6-m/libc.a(lib_a-fclose.o)
 .data          0x0000000000000000        0x0 /usr/lib/gcc/arm-none-eabi/6.3.1/../../../arm-none-eabi/lib/thumb/v6-m/libc.a(lib_a-fputwc.o)
 .bss           0x0000000000000000        0x0 /usr/lib/gcc/arm-none-eabi/6.3.1/../../../arm-none-eabi/lib/thumb/v6-m/libc.a(lib_a-fputwc.o)
 .data          0x0000000000000000        0x0 /usr/lib/gcc/arm-none-eabi/6.3.1/../../../arm-none-eabi/lib/thumb/v6-m/libc.a(lib_a-fstatr.o)
 .bss           0x0000000000000000        0x0 /usr/lib/gcc/arm-none-eabi/6.3.1/../../../arm-none-eabi/lib/thumb/v6-m/libc.a(lib_a-fstatr.o)
 .data          0x0000000000000000        0x0 /usr/lib/gcc/arm-none-eabi/6.3.1/../../../arm-none-eabi/lib/thumb/v6-m/libc.a(lib_a-fvwrite.o)
 .bss           0x0000000000000000        0x0 /usr/lib/gcc/arm-none-eabi/6.3.1/../../../arm-none-eabi/lib/thumb/v6-m/libc.a(lib_a-fvwrite.o)
 .data          0x0000000000000000        0x0 /usr/lib/gcc/arm-none-eabi/6.3.1/../../../arm-none-eabi/lib/thumb/v6-m/libc.a(lib_a-isattyr.o)
 .bss           0x0000000000000000        0x0 /usr/lib/gcc/arm-none-eabi/6.3.1/../../../arm-none-eabi/lib/thumb/v6-m/libc.a(lib_a-isattyr.o)
 .data          0x0000000000000000        0x0 /usr/lib/gcc/arm-none-eabi/6.3.1/../../../arm-none-eabi/lib/thumb/v6-m/libc.a(lib_a-iswspace.o)
 .bss           0x0000000000000000        0x0 /usr/lib/gcc/arm-none-eabi/6.3.1/../../../arm-none-eabi/lib/thumb/v6-m/libc.a(lib_a-iswspace.o)
 .data          0x0000000000000000        0x0 /usr/lib/gcc/arm-none-eabi/6.3.1/../../../arm-none-eabi/lib/thumb/v6-m/libc.a(lib_a-lseekr.o)
 .bss           0x0000000000000000        0x0 /usr/lib/gcc/arm-none-eabi/6.3.1/../../../arm-none-eabi/lib/thumb/v6-m/libc.a(lib_a-lseekr.o)
 .data          0x0000000000000000        0x0 /usr/lib/gcc/arm-none-eabi/6.3.1/../../../arm-none-eabi/lib/thumb/v6-m/libc.a(lib_a-mbrtowc.o)
 .bss           0x0000000000000000        0x0 /usr/lib/gcc/arm-none-eabi/6.3.1/../../../arm-none-eabi/lib/thumb/v6-m/libc.a(lib_a-mbrtowc.o)
 .bss           0x0000000000000000        0x0 /usr/lib/gcc/arm-none-eabi/6.3.1/../../../arm-none-eabi/lib/thumb/v6-m/libc.a(lib_a-mbtowc_r.o)
 .data          0x0000000000000000        0x0 /usr/lib/gcc/arm-none-eabi/6.3.1/../../../arm-none-eabi/lib/thumb/v6-m/libc.a(lib_a-readr.o)
 .bss           0x0000000000000000        0x0 /usr/lib/gcc/arm-none-eabi/6.3.1/../../../arm-none-eabi/lib/thumb/v6-m/libc.a(lib_a-readr.o)
 .data          0x0000000000000000        0x0 /usr/lib/gcc/arm-none-eabi/6.3.1/../../../arm-none-eabi/lib/thumb/v6-m/libc.a(lib_a-sccl.o)
 .bss           0x0000000000000000        0x0 /usr/lib/gcc/arm-none-eabi/6.3.1/../../../arm-none-eabi/lib/thumb/v6-m/libc.a(lib_a-sccl.o)
 .data          0x0000000000000000        0x0 /usr/lib/gcc/arm-none-eabi/6.3.1/../../../arm-none-eabi/lib/thumb/v6-m/libc.a(lib_a-strtoull_r.o)
 .bss           0x0000000000000000        0x0 /usr/lib/gcc/arm-none-eabi/6.3.1/../../../arm-none-eabi/lib/thumb/v6-m/libc.a(lib_a-strtoull_r.o)
 .data          0x0000000000000000        0x0 /usr/lib/gcc/arm-none-eabi/6.3.1/../../../arm-none-eabi/lib/thumb/v6-m/libc.a(lib_a-wcrtomb.o)
 .bss           0x0000000000000000        0x0 /usr/lib/gcc/arm-none-eabi/6.3.1/../../../arm-none-eabi/lib/thumb/v6-m/libc.a(lib_a-wcrtomb.o)
 .bss           0x0000000000000000        0x0 /usr/lib/gcc/arm-none-eabi/6.3.1/../../../arm-none-eabi/lib/thumb/v6-m/libc.a(lib_a-wctomb_r.o)
 .data          0x0000000000000000        0x0 /usr/lib/gcc/arm-none-eabi/6.3.1/../../../arm-none-eabi/lib/thumb/v6-m/libnosys.a(close.o)
 .bss           0x0000000000000000        0x0 /usr/lib/gcc/arm-none-eabi/6.3.1/../../../arm-none-eabi/lib/thumb/v6-m/libnosys.a(close.o)
 .data          0x0000000000000000        0x0 /usr/lib/gcc/arm-none-eabi/6.3.1/../../../arm-none-eabi/lib/thumb/v6-m/libnosys.a(fstat.o)
 .bss           0x0000000000000000        0x0 /usr/lib/gcc/arm-none-eabi/6.3.1/../../../arm-none-eabi/lib/thumb/v6-m/libnosys.a(fstat.o)
 .data          0x0000000000000000        0x0 /usr/lib/gcc/arm-none-eabi/6.3.1/../../../arm-none-eabi/lib/thumb/v6-m/libnosys.a(getpid.o)
 .bss           0x0000000000000000        0x0 /usr/lib/gcc/arm-none-eabi/6.3.1/../../../arm-none-eabi/lib/thumb/v6-m/libnosys.a(getpid.o)
 .data          0x0000000000000000        0x0 /usr/lib/gcc/arm-none-eabi/6.3.1/../../../arm-none-eabi/lib/thumb/v6-m/libnosys.a(isatty.o)
 .bss           0x0000000000000000        0x0 /usr/lib/gcc/arm-none-eabi/6.3.1/../../../arm-none-eabi/lib/thumb/v6-m/libnosys.a(isatty.o)
 .data          0x0000000000000000        0x0 /usr/lib/gcc/arm-none-eabi/6.3.1/../../../arm-none-eabi/lib/thumb/v6-m/libnosys.a(kill.o)
 .bss           0x0000000000000000        0x0 /usr/lib/gcc/arm-none-eabi/6.3.1/../../../arm-none-eabi/lib/thumb/v6-m/libnosys.a(kill.o)
 .data          0x0000000000000000        0x0 /usr/lib/gcc/arm-none-eabi/6.3.1/../../../arm-none-eabi/lib/thumb/v6-m/libnosys.a(lseek.o)
 .bss           0x0000000000000000        0x0 /usr/lib/gcc/arm-none-eabi/6.3.1/../../../arm-none-eabi/lib/thumb/v6-m/libnosys.a(lseek.o)
 .text          0x0000000000000000        0x0 /usr/lib/gcc/arm-none-eabi/6.3.1/thumb/v6-m/crtend.o
 .data          0x0000000000000000        0x0 /usr/lib/gcc/arm-none-eabi/6.3.1/thumb/v6-m/crtend.o
 .bss           0x0000000000000000        0x0 /usr/lib/gcc/arm-none-eabi/6.3.1/thumb/v6-m/crtend.o
 .eh_frame      0x0000000000000000        0x4 /usr/lib/gcc/arm-none-eabi/6.3.1/thumb/v6-m/crtend.o
 .jcr           0x0000000000000000        0x4 /usr/lib/gcc/arm-none-eabi/6.3.1/thumb/v6-m/crtend.o
 .text          0x0000000000000000        0x0 /usr/lib/gcc/arm-none-eabi/6.3.1/thumb/v6-m/crtn.o
 .data          0x0000000000000000        0x0 /usr/lib/gcc/arm-none-eabi/6.3.1/thumb/v6-m/crtn.o
 .bss           0x0000000000000000        0x0 /usr/lib/gcc/arm-none-eabi/6.3.1/thumb/v6-m/crtn.o
 .init          0x0000000000000000        0x8 /usr/lib/gcc/arm-none-eabi/6.3.1/thumb/v6-m/crtn.o
 .fini          0x0000000000000000        0x8 /usr/lib/gcc/arm-none-eabi/6.3.1/thumb/v6-m/crtn.o
 .ARM.attributes
                0x0000000000000000       0x1e /usr/lib/gcc/arm-none-eabi/6.3.1/thumb/v6-m/crtn.o

Memory Configuration

Name             Origin             Length             Attributes
FLASH            0x0000000010000000 0x0000000000200000 xr
RAM              0x0000000020000000 0x0000000000040000 xrw
SCRATCH_X        0x0000000020040000 0x0000000000001000 xrw
SCRATCH_Y        0x0000000020041000 0x0000000000001000 xrw
*default*        0x0000000000000000 0xffffffffffffffff

Linker script and memory map

LOAD /usr/lib/gcc/arm-none-eabi/6.3.1/thumb/v6-m/crti.o
LOAD /usr/lib/gcc/arm-none-eabi/6.3.1/thumb/v6-m/crtbegin.o
LOAD /usr/lib/gcc/arm-none-eabi/6.3.1/../../../arm-none-eabi/lib/thumb/v6-m/crt0.o

.flash_begin    0x0000000010000000        0x0
                0x0000000010000000                __flash_binary_start = .

.boot2          0x0000000010000000      0x100
                0x0000000010000000                __boot2_start__ = .
 *(.boot2)
 .boot2         0x0000000010000000      0x100 /tmp/ccgx0QTb.o
                0x0000000010000100                __boot2_end__ = .
                0x0000000000000001                ASSERT (((__boot2_end__ - __boot2_start__) == 0x100), ERROR: Pico second stage bootloader must be 256 bytes in size)

.text           0x0000000010000100     0xf500
                0x0000000010000100                __logical_binary_start = .
 *(.vectors)
 .vectors       0x0000000010000100       0xd4 CMakeFiles/SPO.dir/mnt/c/study/GRAD/249A/proj/EECS249-Smart-Pill-Organizer/pico-sdk/src/rp2_common/pico_standard_link/crt0.S.obj
                0x0000000010000100                __vectors
                0x0000000010000100                __VECTOR_TABLE
                0x00000000100001c0                isr_invalid
                0x00000000100001c0                __default_isrs_start
                0x00000000100001c2                isr_nmi
                0x00000000100001c4                isr_hardfault
                0x00000000100001c6                isr_svcall
                0x00000000100001c8                isr_pendsv
                0x00000000100001ca                isr_systick
                0x00000000100001cc                isr_irq30
                0x00000000100001cc                __unhandled_user_irq
                0x00000000100001cc                isr_irq13
                0x00000000100001cc                isr_irq27
                0x00000000100001cc                isr_irq31
                0x00000000100001cc                isr_irq5
                0x00000000100001cc                isr_irq11
                0x00000000100001cc                isr_irq23
                0x00000000100001cc                isr_irq18
                0x00000000100001cc                isr_irq28
                0x00000000100001cc                isr_irq19
                0x00000000100001cc                isr_irq0
                0x00000000100001cc                isr_irq6
                0x00000000100001cc                isr_irq22
                0x00000000100001cc                isr_irq17
                0x00000000100001cc                isr_irq14
                0x00000000100001cc                isr_irq2
                0x00000000100001cc                isr_irq10
                0x00000000100001cc                isr_irq8
                0x00000000100001cc                isr_irq24
                0x00000000100001cc                isr_irq1
                0x00000000100001cc                isr_irq7
                0x00000000100001cc                isr_irq21
                0x00000000100001cc                isr_irq20
                0x00000000100001cc                isr_irq15
                0x00000000100001cc                isr_irq25
                0x00000000100001cc                isr_irq4
                0x00000000100001cc                isr_irq16
                0x00000000100001cc                isr_irq29
                0x00000000100001cc                isr_irq26
                0x00000000100001cc                __default_isrs_end
                0x00000000100001cc                isr_irq3
                0x00000000100001cc                isr_irq12
                0x00000000100001cc                isr_irq9
                0x00000000100001d2                unhandled_user_irq_num_in_r0
 *(.binary_info_header)
 .binary_info_header
                0x00000000100001d4       0x14 CMakeFiles/SPO.dir/mnt/c/study/GRAD/249A/proj/EECS249-Smart-Pill-Organizer/pico-sdk/src/rp2_common/pico_standard_link/crt0.S.obj
                0x00000000100001e8                __binary_info_header_end = .
 *(.reset)
 .reset         0x00000000100001e8       0xa8 CMakeFiles/SPO.dir/mnt/c/study/GRAD/249A/proj/EECS249-Smart-Pill-Organizer/pico-sdk/src/rp2_common/pico_standard_link/crt0.S.obj
                0x00000000100001e8                _entry_point
                0x0000000010000266                __get_current_exception
 .reset         0x0000000010000290       0x30 CMakeFiles/SPO.dir/mnt/c/study/GRAD/249A/proj/EECS249-Smart-Pill-Organizer/pico-sdk/src/rp2_common/pico_standard_link/binary_info.c.obj
 *(.init)
 .init          0x00000000100002c0        0x4 /usr/lib/gcc/arm-none-eabi/6.3.1/thumb/v6-m/crti.o
                0x00000000100002c0                _init
 *(EXCLUDE_FILE(*libm.a: *libc.a:*lib_a-mem*.o *libgcc.a:) .text*)
 .text          0x00000000100002c4       0xb4 /usr/lib/gcc/arm-none-eabi/6.3.1/thumb/v6-m/crtbegin.o
 .text.bubble_up
                0x0000000010000378       0x98 CMakeFiles/SPO.dir/Main.c.obj
 .text.percolate_down
                0x0000000010000410       0xc0 CMakeFiles/SPO.dir/Main.c.obj
 .text.in_reverse_order
                0x00000000100004d0       0x18 CMakeFiles/SPO.dir/Main.c.obj
 .text.in_no_particular_order
                0x00000000100004e8        0x4 CMakeFiles/SPO.dir/Main.c.obj
 .text.event_matches
                0x00000000100004ec        0xc CMakeFiles/SPO.dir/Main.c.obj
 .text.reaction_matches
                0x00000000100004f8        0x8 CMakeFiles/SPO.dir/Main.c.obj
 .text.get_event_time
                0x0000000010000500        0x8 CMakeFiles/SPO.dir/Main.c.obj
 .text.get_reaction_index
                0x0000000010000508        0x8 CMakeFiles/SPO.dir/Main.c.obj
 .text.get_event_position
                0x0000000010000510        0x4 CMakeFiles/SPO.dir/Main.c.obj
 .text.get_reaction_position
                0x0000000010000514        0x4 CMakeFiles/SPO.dir/Main.c.obj
 .text.set_event_position
                0x0000000010000518        0x4 CMakeFiles/SPO.dir/Main.c.obj
 .text.set_reaction_position
                0x000000001000051c        0x4 CMakeFiles/SPO.dir/Main.c.obj
 .text.print_event
                0x0000000010000520        0x4 CMakeFiles/SPO.dir/Main.c.obj
 .text.mainreaction_function_0
                0x0000000010000524       0x2c CMakeFiles/SPO.dir/Main.c.obj
                0x0000000010000524                mainreaction_function_0
 .text.print_reaction
                0x0000000010000550        0x4 CMakeFiles/SPO.dir/Main.c.obj
 .text.lf_comma_separated_time
                0x0000000010000554      0x1c8 CMakeFiles/SPO.dir/Main.c.obj
                0x0000000010000554                lf_comma_separated_time
 .text._lf_message_print
                0x000000001000071c       0xc4 CMakeFiles/SPO.dir/Main.c.obj
                0x000000001000071c                _lf_message_print
 .text.info_print
                0x00000000100007e0       0x88 CMakeFiles/SPO.dir/Main.c.obj
                0x00000000100007e0                info_print
 .text.error_print
                0x0000000010000868       0x88 CMakeFiles/SPO.dir/Main.c.obj
                0x0000000010000868                error_print
 .text.schedule_output_reactions.part.6
                0x00000000100008f0      0x274 CMakeFiles/SPO.dir/Main.c.obj
 .text.warning_print
                0x0000000010000b64       0x88 CMakeFiles/SPO.dir/Main.c.obj
                0x0000000010000b64                warning_print
 .text.error_print_and_exit
                0x0000000010000bec       0x24 CMakeFiles/SPO.dir/Main.c.obj
                0x0000000010000bec                error_print_and_exit
 .text.find_equal_same_priority
                0x0000000010000c10       0xa4 CMakeFiles/SPO.dir/Main.c.obj
                0x0000000010000c10                find_equal_same_priority
 .text._lf_start_time_step
                0x0000000010000cb4      0x1ac CMakeFiles/SPO.dir/Main.c.obj
                0x0000000010000cb4                _lf_start_time_step
 .text.termination
                0x0000000010000e60      0x160 CMakeFiles/SPO.dir/Main.c.obj
                0x0000000010000e60                termination
 .text._lf_pop_events
                0x0000000010000fc0      0x7c0 CMakeFiles/SPO.dir/Main.c.obj
                0x0000000010000fc0                _lf_pop_events
 .text.usage    0x0000000010001780       0xb0 CMakeFiles/SPO.dir/Main.c.obj
                0x0000000010001780                usage
 .text.process_args
                0x0000000010001830      0x5fc CMakeFiles/SPO.dir/Main.c.obj
                0x0000000010001830                process_args
 .text.initialize
                0x0000000010001e2c      0x2dc CMakeFiles/SPO.dir/Main.c.obj
                0x0000000010001e2c                initialize
 .text._lf_do_step
                0x0000000010002108      0x168 CMakeFiles/SPO.dir/Main.c.obj
                0x0000000010002108                _lf_do_step
 .text.next     0x0000000010002270      0x28c CMakeFiles/SPO.dir/Main.c.obj
                0x0000000010002270                next
 .text.lf_reactor_c_main
                0x00000000100024fc      0x1bc CMakeFiles/SPO.dir/Main.c.obj
                0x00000000100024fc                lf_reactor_c_main
 .text.startup.main
                0x00000000100026b8        0x8 CMakeFiles/SPO.dir/Main.c.obj
                0x00000000100026b8                main
 .text.lf_initialize_clock
                0x00000000100026c0        0x8 CMakeFiles/SPO.dir/core/platform/lf_pico_support.c.obj
                0x00000000100026c0                lf_initialize_clock
 .text.lf_clock_gettime
                0x00000000100026c8       0x1c CMakeFiles/SPO.dir/core/platform/lf_pico_support.c.obj
                0x00000000100026c8                lf_clock_gettime
 .text.lf_nanosleep
                0x00000000100026e4       0x14 CMakeFiles/SPO.dir/core/platform/lf_pico_support.c.obj
                0x00000000100026e4                lf_nanosleep
 .text.gpio_set_function
                0x00000000100026f8       0x30 CMakeFiles/SPO.dir/mnt/c/study/GRAD/249A/proj/EECS249-Smart-Pill-Organizer/pico-sdk/src/rp2_common/hardware_gpio/gpio.c.obj
                0x00000000100026f8                gpio_set_function
 .text.gpio_init
                0x0000000010002728       0x3c CMakeFiles/SPO.dir/mnt/c/study/GRAD/249A/proj/EECS249-Smart-Pill-Organizer/pico-sdk/src/rp2_common/hardware_gpio/gpio.c.obj
                0x0000000010002728                gpio_init
 .text.hw_claim_or_assert
                0x0000000010002764       0x44 CMakeFiles/SPO.dir/mnt/c/study/GRAD/249A/proj/EECS249-Smart-Pill-Organizer/pico-sdk/src/rp2_common/hardware_claim/claim.c.obj
                0x0000000010002764                hw_claim_or_assert
 .text.running_on_fpga
                0x00000000100027a8       0x10 CMakeFiles/SPO.dir/mnt/c/study/GRAD/249A/proj/EECS249-Smart-Pill-Organizer/pico-sdk/src/rp2_common/pico_platform/platform.c.obj
                0x00000000100027a8                running_on_fpga
 .text.spin_locks_reset
                0x00000000100027b8       0x1c CMakeFiles/SPO.dir/mnt/c/study/GRAD/249A/proj/EECS249-Smart-Pill-Organizer/pico-sdk/src/rp2_common/hardware_sync/sync.c.obj
                0x00000000100027b8                spin_locks_reset
 .text.next_striped_spin_lock_num
                0x00000000100027d4       0x18 CMakeFiles/SPO.dir/mnt/c/study/GRAD/249A/proj/EECS249-Smart-Pill-Organizer/pico-sdk/src/rp2_common/hardware_sync/sync.c.obj
                0x00000000100027d4                next_striped_spin_lock_num
 .text.uart_init
                0x00000000100027ec       0xe4 CMakeFiles/SPO.dir/mnt/c/study/GRAD/249A/proj/EECS249-Smart-Pill-Organizer/pico-sdk/src/rp2_common/hardware_uart/uart.c.obj
                0x00000000100027ec                uart_init
 .text.timer_pool_entry_comparator
                0x00000000100028d0       0x34 CMakeFiles/SPO.dir/mnt/c/study/GRAD/249A/proj/EECS249-Smart-Pill-Organizer/pico-sdk/src/common/pico_time/time.c.obj
                0x00000000100028d0                timer_pool_entry_comparator
 .text.sleep_until_callback
                0x0000000010002904       0x30 CMakeFiles/SPO.dir/mnt/c/study/GRAD/249A/proj/EECS249-Smart-Pill-Organizer/pico-sdk/src/common/pico_time/time.c.obj
 .text.add_alarm_under_lock
                0x0000000010002934      0x124 CMakeFiles/SPO.dir/mnt/c/study/GRAD/249A/proj/EECS249-Smart-Pill-Organizer/pico-sdk/src/common/pico_time/time.c.obj
 .text.alarm_pool_alarm_callback
                0x0000000010002a58      0x1dc CMakeFiles/SPO.dir/mnt/c/study/GRAD/249A/proj/EECS249-Smart-Pill-Organizer/pico-sdk/src/common/pico_time/time.c.obj
 .text.alarm_pool_init_default
                0x0000000010002c34       0x64 CMakeFiles/SPO.dir/mnt/c/study/GRAD/249A/proj/EECS249-Smart-Pill-Organizer/pico-sdk/src/common/pico_time/time.c.obj
                0x0000000010002c34                alarm_pool_init_default
 .text.sleep_until
                0x0000000010002c98      0x1e4 CMakeFiles/SPO.dir/mnt/c/study/GRAD/249A/proj/EECS249-Smart-Pill-Organizer/pico-sdk/src/common/pico_time/time.c.obj
                0x0000000010002c98                sleep_until
 .text.sleep_us
                0x0000000010002e7c       0x30 CMakeFiles/SPO.dir/mnt/c/study/GRAD/249A/proj/EECS249-Smart-Pill-Organizer/pico-sdk/src/common/pico_time/time.c.obj
                0x0000000010002e7c                sleep_us
 .text.sleep_ms
                0x0000000010002eac       0x38 CMakeFiles/SPO.dir/mnt/c/study/GRAD/249A/proj/EECS249-Smart-Pill-Organizer/pico-sdk/src/common/pico_time/time.c.obj
                0x0000000010002eac                sleep_ms
 .text.hardware_alarm_irq_handler
                0x0000000010002ee4       0xa0 CMakeFiles/SPO.dir/mnt/c/study/GRAD/249A/proj/EECS249-Smart-Pill-Organizer/pico-sdk/src/rp2_common/hardware_timer/timer.c.obj
 .text.hardware_alarm_claim
                0x0000000010002f84       0x18 CMakeFiles/SPO.dir/mnt/c/study/GRAD/249A/proj/EECS249-Smart-Pill-Organizer/pico-sdk/src/rp2_common/hardware_timer/timer.c.obj
                0x0000000010002f84                hardware_alarm_claim
 .text.time_us_64
                0x0000000010002f9c       0x18 CMakeFiles/SPO.dir/mnt/c/study/GRAD/249A/proj/EECS249-Smart-Pill-Organizer/pico-sdk/src/rp2_common/hardware_timer/timer.c.obj
                0x0000000010002f9c                time_us_64
 .text.busy_wait_us
                0x0000000010002fb4       0x54 CMakeFiles/SPO.dir/mnt/c/study/GRAD/249A/proj/EECS249-Smart-Pill-Organizer/pico-sdk/src/rp2_common/hardware_timer/timer.c.obj
                0x0000000010002fb4                busy_wait_us
 .text.busy_wait_until
                0x0000000010003008       0x20 CMakeFiles/SPO.dir/mnt/c/study/GRAD/249A/proj/EECS249-Smart-Pill-Organizer/pico-sdk/src/rp2_common/hardware_timer/timer.c.obj
                0x0000000010003008                busy_wait_until
 .text.hardware_alarm_set_callback
                0x0000000010003028       0x8c CMakeFiles/SPO.dir/mnt/c/study/GRAD/249A/proj/EECS249-Smart-Pill-Organizer/pico-sdk/src/rp2_common/hardware_timer/timer.c.obj
                0x0000000010003028                hardware_alarm_set_callback
 .text.hardware_alarm_set_target
                0x00000000100030b4       0xdc CMakeFiles/SPO.dir/mnt/c/study/GRAD/249A/proj/EECS249-Smart-Pill-Organizer/pico-sdk/src/rp2_common/hardware_timer/timer.c.obj
                0x00000000100030b4                hardware_alarm_set_target
 .text.hardware_alarm_cancel
                0x0000000010003190       0x40 CMakeFiles/SPO.dir/mnt/c/study/GRAD/249A/proj/EECS249-Smart-Pill-Organizer/pico-sdk/src/rp2_common/hardware_timer/timer.c.obj
                0x0000000010003190                hardware_alarm_cancel
 .text.lock_init
                0x00000000100031d0       0x10 CMakeFiles/SPO.dir/mnt/c/study/GRAD/249A/proj/EECS249-Smart-Pill-Organizer/pico-sdk/src/common/pico_sync/lock_core.c.obj
                0x00000000100031d0                lock_init
 .text.mutex_init
                0x00000000100031e0       0x1c CMakeFiles/SPO.dir/mnt/c/study/GRAD/249A/proj/EECS249-Smart-Pill-Organizer/pico-sdk/src/common/pico_sync/mutex.c.obj
                0x00000000100031e0                mutex_init
 .text.recursive_mutex_init
                0x00000000100031fc       0x20 CMakeFiles/SPO.dir/mnt/c/study/GRAD/249A/proj/EECS249-Smart-Pill-Organizer/pico-sdk/src/common/pico_sync/mutex.c.obj
                0x00000000100031fc                recursive_mutex_init
 .text.ph_merge_two_pass.part.3
                0x000000001000321c      0x18c CMakeFiles/SPO.dir/mnt/c/study/GRAD/249A/proj/EECS249-Smart-Pill-Organizer/pico-sdk/src/common/pico_util/pheap.c.obj
 .text.ph_post_alloc_init
                0x00000000100033a8       0x3c CMakeFiles/SPO.dir/mnt/c/study/GRAD/249A/proj/EECS249-Smart-Pill-Organizer/pico-sdk/src/common/pico_util/pheap.c.obj
                0x00000000100033a8                ph_post_alloc_init
 .text.ph_remove_head
                0x00000000100033e4      0x158 CMakeFiles/SPO.dir/mnt/c/study/GRAD/249A/proj/EECS249-Smart-Pill-Organizer/pico-sdk/src/common/pico_util/pheap.c.obj
                0x00000000100033e4                ph_remove_head
 .text.ph_remove_and_free_node
                0x000000001000353c      0x254 CMakeFiles/SPO.dir/mnt/c/study/GRAD/249A/proj/EECS249-Smart-Pill-Organizer/pico-sdk/src/common/pico_util/pheap.c.obj
                0x000000001000353c                ph_remove_and_free_node
 .text.runtime_init
                0x0000000010003790       0xf4 CMakeFiles/SPO.dir/mnt/c/study/GRAD/249A/proj/EECS249-Smart-Pill-Organizer/pico-sdk/src/rp2_common/pico_runtime/runtime.c.obj
                0x0000000010003790                runtime_init
 .text._sbrk    0x0000000010003884       0x34 CMakeFiles/SPO.dir/mnt/c/study/GRAD/249A/proj/EECS249-Smart-Pill-Organizer/pico-sdk/src/rp2_common/pico_runtime/runtime.c.obj
                0x0000000010003884                _sbrk
 .text.exit     0x00000000100038b8        0x4 CMakeFiles/SPO.dir/mnt/c/study/GRAD/249A/proj/EECS249-Smart-Pill-Organizer/pico-sdk/src/rp2_common/pico_runtime/runtime.c.obj
                0x00000000100038b8                exit
 .text.panic    0x00000000100038bc       0x30 CMakeFiles/SPO.dir/mnt/c/study/GRAD/249A/proj/EECS249-Smart-Pill-Organizer/pico-sdk/src/rp2_common/pico_runtime/runtime.c.obj
                0x00000000100038bc                panic
 .text.hard_assertion_failure
                0x00000000100038ec        0xc CMakeFiles/SPO.dir/mnt/c/study/GRAD/249A/proj/EECS249-Smart-Pill-Organizer/pico-sdk/src/rp2_common/pico_runtime/runtime.c.obj
                0x00000000100038ec                hard_assertion_failure
 .text.clocks_init
                0x00000000100038f8      0x2c8 CMakeFiles/SPO.dir/mnt/c/study/GRAD/249A/proj/EECS249-Smart-Pill-Organizer/pico-sdk/src/rp2_common/hardware_clocks/clocks.c.obj
                0x00000000100038f8                clocks_init
 .text.clock_get_hz
                0x0000000010003bc0        0xc CMakeFiles/SPO.dir/mnt/c/study/GRAD/249A/proj/EECS249-Smart-Pill-Organizer/pico-sdk/src/rp2_common/hardware_clocks/clocks.c.obj
                0x0000000010003bc0                clock_get_hz
 .text.irq_set_enabled
                0x0000000010003bcc       0x24 CMakeFiles/SPO.dir/mnt/c/study/GRAD/249A/proj/EECS249-Smart-Pill-Organizer/pico-sdk/src/rp2_common/hardware_irq/irq.c.obj
                0x0000000010003bcc                irq_set_enabled
 .text.irq_get_vtable_handler
                0x0000000010003bf0       0x10 CMakeFiles/SPO.dir/mnt/c/study/GRAD/249A/proj/EECS249-Smart-Pill-Organizer/pico-sdk/src/rp2_common/hardware_irq/irq.c.obj
                0x0000000010003bf0                irq_get_vtable_handler
 .text.irq_set_exclusive_handler
                0x0000000010003c00       0x54 CMakeFiles/SPO.dir/mnt/c/study/GRAD/249A/proj/EECS249-Smart-Pill-Organizer/pico-sdk/src/rp2_common/hardware_irq/irq.c.obj
                0x0000000010003c00                irq_set_exclusive_handler
 .text.irq_remove_handler
                0x0000000010003c54      0x1bc CMakeFiles/SPO.dir/mnt/c/study/GRAD/249A/proj/EECS249-Smart-Pill-Organizer/pico-sdk/src/rp2_common/hardware_irq/irq.c.obj
                0x0000000010003c54                irq_remove_handler
 .text.irq_add_tail_to_free_list
                0x0000000010003e10       0xb4 CMakeFiles/SPO.dir/mnt/c/study/GRAD/249A/proj/EECS249-Smart-Pill-Organizer/pico-sdk/src/rp2_common/hardware_irq/irq.c.obj
                0x0000000010003e10                irq_add_tail_to_free_list
 .text.irq_init_priorities
                0x0000000010003ec4       0x48 CMakeFiles/SPO.dir/mnt/c/study/GRAD/249A/proj/EECS249-Smart-Pill-Organizer/pico-sdk/src/rp2_common/hardware_irq/irq.c.obj
                0x0000000010003ec4                irq_init_priorities
 .text.pll_init
                0x0000000010003f0c       0x98 CMakeFiles/SPO.dir/mnt/c/study/GRAD/249A/proj/EECS249-Smart-Pill-Organizer/pico-sdk/src/rp2_common/hardware_pll/pll.c.obj
                0x0000000010003f0c                pll_init
 .text.watchdog_start_tick
                0x0000000010003fa4       0x10 CMakeFiles/SPO.dir/mnt/c/study/GRAD/249A/proj/EECS249-Smart-Pill-Organizer/pico-sdk/src/rp2_common/hardware_watchdog/watchdog.c.obj
                0x0000000010003fa4                watchdog_start_tick
 .text.xosc_init
                0x0000000010003fb4       0x28 CMakeFiles/SPO.dir/mnt/c/study/GRAD/249A/proj/EECS249-Smart-Pill-Organizer/pico-sdk/src/rp2_common/hardware_xosc/xosc.c.obj
                0x0000000010003fb4                xosc_init
 .text._out_buffer
                0x0000000010003fdc        0x8 CMakeFiles/SPO.dir/mnt/c/study/GRAD/249A/proj/EECS249-Smart-Pill-Organizer/pico-sdk/src/rp2_common/pico_printf/printf.c.obj
 .text._out_null
                0x0000000010003fe4        0x4 CMakeFiles/SPO.dir/mnt/c/study/GRAD/249A/proj/EECS249-Smart-Pill-Organizer/pico-sdk/src/rp2_common/pico_printf/printf.c.obj
 .text._out_fct
                0x0000000010003fe8       0x10 CMakeFiles/SPO.dir/mnt/c/study/GRAD/249A/proj/EECS249-Smart-Pill-Organizer/pico-sdk/src/rp2_common/pico_printf/printf.c.obj
 .text._out_char
                0x0000000010003ff8       0x3c CMakeFiles/SPO.dir/mnt/c/study/GRAD/249A/proj/EECS249-Smart-Pill-Organizer/pico-sdk/src/rp2_common/pico_printf/printf.c.obj
 .text._ntoa_format
                0x0000000010004034      0x214 CMakeFiles/SPO.dir/mnt/c/study/GRAD/249A/proj/EECS249-Smart-Pill-Organizer/pico-sdk/src/rp2_common/pico_printf/printf.c.obj
 .text._ftoa    0x0000000010004248      0x6c4 CMakeFiles/SPO.dir/mnt/c/study/GRAD/249A/proj/EECS249-Smart-Pill-Organizer/pico-sdk/src/rp2_common/pico_printf/printf.c.obj
 .text._etoa.part.1
                0x000000001000490c      0x3e0 CMakeFiles/SPO.dir/mnt/c/study/GRAD/249A/proj/EECS249-Smart-Pill-Organizer/pico-sdk/src/rp2_common/pico_printf/printf.c.obj
 .text._vsnprintf
                0x0000000010004cec      0xb30 CMakeFiles/SPO.dir/mnt/c/study/GRAD/249A/proj/EECS249-Smart-Pill-Organizer/pico-sdk/src/rp2_common/pico_printf/printf.c.obj
 .text.__wrap_sprintf
                0x000000001000581c       0x28 CMakeFiles/SPO.dir/mnt/c/study/GRAD/249A/proj/EECS249-Smart-Pill-Organizer/pico-sdk/src/rp2_common/pico_printf/printf.c.obj
                0x000000001000581c                __wrap_sprintf
 .text.__wrap_snprintf
                0x0000000010005844       0x28 CMakeFiles/SPO.dir/mnt/c/study/GRAD/249A/proj/EECS249-Smart-Pill-Organizer/pico-sdk/src/rp2_common/pico_printf/printf.c.obj
                0x0000000010005844                __wrap_snprintf
 .text.vfctprintf
                0x000000001000586c       0x20 CMakeFiles/SPO.dir/mnt/c/study/GRAD/249A/proj/EECS249-Smart-Pill-Organizer/pico-sdk/src/rp2_common/pico_printf/printf.c.obj
                0x000000001000586c                vfctprintf
 .text.weak_raw_vprintf
                0x000000001000588c       0x30 CMakeFiles/SPO.dir/mnt/c/study/GRAD/249A/proj/EECS249-Smart-Pill-Organizer/pico-sdk/src/rp2_common/pico_printf/printf.c.obj
                0x000000001000588c                weak_raw_vprintf
 .text          0x00000000100058bc       0x10 CMakeFiles/SPO.dir/mnt/c/study/GRAD/249A/proj/EECS249-Smart-Pill-Organizer/pico-sdk/src/rp2_common/pico_bit_ops/bit_ops_aeabi.S.obj
 .text.rom_func_lookup
                0x00000000100058cc       0x10 CMakeFiles/SPO.dir/mnt/c/study/GRAD/249A/proj/EECS249-Smart-Pill-Organizer/pico-sdk/src/rp2_common/pico_bootrom/bootrom.c.obj
                0x00000000100058cc                rom_func_lookup
 .text.rom_data_lookup
                0x00000000100058dc       0x10 CMakeFiles/SPO.dir/mnt/c/study/GRAD/249A/proj/EECS249-Smart-Pill-Organizer/pico-sdk/src/rp2_common/pico_bootrom/bootrom.c.obj
                0x00000000100058dc                rom_data_lookup
 .text.rom_funcs_lookup
                0x00000000100058ec       0x44 CMakeFiles/SPO.dir/mnt/c/study/GRAD/249A/proj/EECS249-Smart-Pill-Organizer/pico-sdk/src/rp2_common/pico_bootrom/bootrom.c.obj
                0x00000000100058ec                rom_funcs_lookup
 .text.__wrap___aeabi_idiv
                0x0000000010005930       0x50 CMakeFiles/SPO.dir/mnt/c/study/GRAD/249A/proj/EECS249-Smart-Pill-Organizer/pico-sdk/src/rp2_common/pico_divider/divider.S.obj
                0x0000000010005930                __wrap___aeabi_idivmod
                0x0000000010005930                divmod_s32s32
                0x0000000010005930                div_s32s32
                0x0000000010005930                __wrap___aeabi_idiv
                0x0000000010005938                divmod_s32s32_unsafe
                0x0000000010005964                divmod_s32s32_savestate
 .text.__wrap___aeabi_uidiv
                0x0000000010005980       0x4c CMakeFiles/SPO.dir/mnt/c/study/GRAD/249A/proj/EECS249-Smart-Pill-Organizer/pico-sdk/src/rp2_common/pico_divider/divider.S.obj
                0x0000000010005980                __wrap___aeabi_uidiv
                0x0000000010005980                __wrap___aeabi_uidivmod
                0x0000000010005980                div_u32u32
                0x0000000010005980                divmod_u32u32
                0x0000000010005988                divmod_u32u32_unsafe
                0x00000000100059b0                divmod_u32u32_savestate
 .text.__wrap___aeabi_ldiv
                0x00000000100059cc      0x434 CMakeFiles/SPO.dir/mnt/c/study/GRAD/249A/proj/EECS249-Smart-Pill-Organizer/pico-sdk/src/rp2_common/pico_divider/divider.S.obj
                0x00000000100059cc                div_s64s64
                0x00000000100059cc                divmod_s64s64
                0x00000000100059cc                __wrap___aeabi_ldivmod
                0x0000000010005a04                div_u64u64
                0x0000000010005a04                divmod_u64u64
                0x0000000010005a04                __wrap___aeabi_uldivmod
                0x0000000010005a14                divmod_u64u64_savestate
                0x0000000010005a3c                divmod_s64s64_unsafe
                0x0000000010005ac4                divmod_u64u64_unsafe
 .text.__wrap___aeabi_darithmetic
                0x0000000010005e00       0x80 CMakeFiles/SPO.dir/mnt/c/study/GRAD/249A/proj/EECS249-Smart-Pill-Organizer/pico-sdk/src/rp2_common/pico_double/double_aeabi.S.obj
                0x0000000010005e00                __wrap___aeabi_drsub
                0x0000000010005e06                __wrap___aeabi_dsub
                0x0000000010005e18                __wrap___aeabi_dadd
                0x0000000010005e2a                __wrap___aeabi_ddiv
                0x0000000010005e66                __wrap___aeabi_dmul
 .text.__wrap___aeabi_cdcmple
                0x0000000010005e80       0x6c CMakeFiles/SPO.dir/mnt/c/study/GRAD/249A/proj/EECS249-Smart-Pill-Organizer/pico-sdk/src/rp2_common/pico_double/double_aeabi.S.obj
                0x0000000010005e80                __wrap___aeabi_cdrcmple
                0x0000000010005e90                __wrap___aeabi_cdcmple
                0x0000000010005e90                __wrap___aeabi_cdcmpeq
 .text.__wrap___aeabi_dcmpeq
                0x0000000010005eec       0x10 CMakeFiles/SPO.dir/mnt/c/study/GRAD/249A/proj/EECS249-Smart-Pill-Organizer/pico-sdk/src/rp2_common/pico_double/double_aeabi.S.obj
                0x0000000010005eec                __wrap___aeabi_dcmpeq
 .text.__wrap___aeabi_dcmplt
                0x0000000010005efc        0xc CMakeFiles/SPO.dir/mnt/c/study/GRAD/249A/proj/EECS249-Smart-Pill-Organizer/pico-sdk/src/rp2_common/pico_double/double_aeabi.S.obj
                0x0000000010005efc                __wrap___aeabi_dcmplt
 .text.__wrap___aeabi_dcmple
                0x0000000010005f08       0x10 CMakeFiles/SPO.dir/mnt/c/study/GRAD/249A/proj/EECS249-Smart-Pill-Organizer/pico-sdk/src/rp2_common/pico_double/double_aeabi.S.obj
                0x0000000010005f08                __wrap___aeabi_dcmple
 .text.__wrap___aeabi_dcmpge
                0x0000000010005f18       0x10 CMakeFiles/SPO.dir/mnt/c/study/GRAD/249A/proj/EECS249-Smart-Pill-Organizer/pico-sdk/src/rp2_common/pico_double/double_aeabi.S.obj
                0x0000000010005f18                __wrap___aeabi_dcmpge
 .text.__wrap___aeabi_dcmpgt
                0x0000000010005f28        0xa CMakeFiles/SPO.dir/mnt/c/study/GRAD/249A/proj/EECS249-Smart-Pill-Organizer/pico-sdk/src/rp2_common/pico_double/double_aeabi.S.obj
                0x0000000010005f28                __wrap___aeabi_dcmpgt
 .text.__wrap___aeabi_dcmpun
                0x0000000010005f32       0x1c CMakeFiles/SPO.dir/mnt/c/study/GRAD/249A/proj/EECS249-Smart-Pill-Organizer/pico-sdk/src/rp2_common/pico_double/double_aeabi.S.obj
                0x0000000010005f32                __wrap___aeabi_dcmpun
 *fill*         0x0000000010005f4e        0x2 
 .text.__wrap___aeabi_i2d
                0x0000000010005f50       0x38 CMakeFiles/SPO.dir/mnt/c/study/GRAD/249A/proj/EECS249-Smart-Pill-Organizer/pico-sdk/src/rp2_common/pico_double/double_aeabi.S.obj
                0x0000000010005f50                __wrap___aeabi_ui2d
                0x0000000010005f58                __wrap___aeabi_i2d
 .text.__wrap___aeabi_d2iz
                0x0000000010005f88       0x48 CMakeFiles/SPO.dir/mnt/c/study/GRAD/249A/proj/EECS249-Smart-Pill-Organizer/pico-sdk/src/rp2_common/pico_double/double_aeabi.S.obj
                0x0000000010005f88                __wrap___aeabi_d2iz
                0x0000000010005f88                double2int_z
 .text.__wrap___aeabi_d2uiz
                0x0000000010005fd0       0x18 CMakeFiles/SPO.dir/mnt/c/study/GRAD/249A/proj/EECS249-Smart-Pill-Organizer/pico-sdk/src/rp2_common/pico_double/double_aeabi.S.obj
                0x0000000010005fd0                double2uint
                0x0000000010005fd0                __wrap___aeabi_d2uiz
 .text.__aeabi_double_init
                0x0000000010005fe8       0x60 CMakeFiles/SPO.dir/mnt/c/study/GRAD/249A/proj/EECS249-Smart-Pill-Organizer/pico-sdk/src/rp2_common/pico_double/double_init_rom.c.obj
                0x0000000010005fe8                __aeabi_double_init
 .text.double_table_shim_on_use_helper
                0x0000000010006048       0x2c CMakeFiles/SPO.dir/mnt/c/study/GRAD/249A/proj/EECS249-Smart-Pill-Organizer/pico-sdk/src/rp2_common/pico_double/double_v1_rom_shim.S.obj
                0x0000000010006048                double_table_shim_on_use_helper
 .text.__wrap___aeabi_dsub
                0x0000000010006074       0x10 CMakeFiles/SPO.dir/mnt/c/study/GRAD/249A/proj/EECS249-Smart-Pill-Organizer/pico-sdk/src/rp2_common/pico_double/double_v1_rom_shim.S.obj
                0x0000000010006074                drsub_shim
                0x000000001000607a                dsub_shim
 .text.dadd_shim
                0x0000000010006084      0x15c CMakeFiles/SPO.dir/mnt/c/study/GRAD/249A/proj/EECS249-Smart-Pill-Organizer/pico-sdk/src/rp2_common/pico_double/double_v1_rom_shim.S.obj
                0x0000000010006084                dadd_shim
 .text.dmul_shim
                0x00000000100061e0      0x15c CMakeFiles/SPO.dir/mnt/c/study/GRAD/249A/proj/EECS249-Smart-Pill-Organizer/pico-sdk/src/rp2_common/pico_double/double_v1_rom_shim.S.obj
                0x00000000100061e0                dmul_shim
 .text.ddiv_shim
                0x000000001000633c      0x1b0 CMakeFiles/SPO.dir/mnt/c/study/GRAD/249A/proj/EECS249-Smart-Pill-Organizer/pico-sdk/src/rp2_common/pico_double/double_v1_rom_shim.S.obj
                0x000000001000633c                ddiv_shim
 .text.double2uint_shim
                0x00000000100064ec        0xe CMakeFiles/SPO.dir/mnt/c/study/GRAD/249A/proj/EECS249-Smart-Pill-Organizer/pico-sdk/src/rp2_common/pico_double/double_v1_rom_shim.S.obj
                0x00000000100064ec                double2uint_shim
                0x00000000100064ee                double2ufix_shim
 *fill*         0x00000000100064fa        0x2 
 .text.double2uint64_shim
                0x00000000100064fc       0x70 CMakeFiles/SPO.dir/mnt/c/study/GRAD/249A/proj/EECS249-Smart-Pill-Organizer/pico-sdk/src/rp2_common/pico_double/double_v1_rom_shim.S.obj
                0x00000000100064fc                double2uint64_shim
                0x00000000100064fe                double2ufix64_shim
                0x000000001000651e                d2fix_a
 .text.dunpacks
                0x000000001000656c       0x3c CMakeFiles/SPO.dir/mnt/c/study/GRAD/249A/proj/EECS249-Smart-Pill-Organizer/pico-sdk/src/rp2_common/pico_double/double_v1_rom_shim.S.obj
                0x000000001000656c                dunpacks
 .text.__aeabi_lmul
                0x00000000100065a8       0x32 CMakeFiles/SPO.dir/mnt/c/study/GRAD/249A/proj/EECS249-Smart-Pill-Organizer/pico-sdk/src/rp2_common/pico_int64_ops/pico_int64_ops_aeabi.S.obj
                0x00000000100065a8                __wrap___aeabi_lmul
 *fill*         0x00000000100065da        0x2 
 .text.__aeabi_float_init
                0x00000000100065dc       0x68 CMakeFiles/SPO.dir/mnt/c/study/GRAD/249A/proj/EECS249-Smart-Pill-Organizer/pico-sdk/src/rp2_common/pico_float/float_init_rom.c.obj
                0x00000000100065dc                __aeabi_float_init
 .text.float_table_shim_on_use_helper
                0x0000000010006644       0x2c CMakeFiles/SPO.dir/mnt/c/study/GRAD/249A/proj/EECS249-Smart-Pill-Organizer/pico-sdk/src/rp2_common/pico_float/float_v1_rom_shim.S.obj
                0x0000000010006644                float_table_shim_on_use_helper
 .text.__wrap_malloc
                0x0000000010006670       0x24 CMakeFiles/SPO.dir/mnt/c/study/GRAD/249A/proj/EECS249-Smart-Pill-Organizer/pico-sdk/src/rp2_common/pico_malloc/pico_malloc.c.obj
                0x0000000010006670                __wrap_malloc
 .text.__wrap_calloc
                0x0000000010006694       0x24 CMakeFiles/SPO.dir/mnt/c/study/GRAD/249A/proj/EECS249-Smart-Pill-Organizer/pico-sdk/src/rp2_common/pico_malloc/pico_malloc.c.obj
                0x0000000010006694                __wrap_calloc
 .text.__wrap_free
                0x00000000100066b8        0x8 CMakeFiles/SPO.dir/mnt/c/study/GRAD/249A/proj/EECS249-Smart-Pill-Organizer/pico-sdk/src/rp2_common/pico_malloc/pico_malloc.c.obj
                0x00000000100066b8                __wrap_free
 .text          0x00000000100066c0       0x10 CMakeFiles/SPO.dir/mnt/c/study/GRAD/249A/proj/EECS249-Smart-Pill-Organizer/pico-sdk/src/rp2_common/pico_mem_ops/mem_ops_aeabi.S.obj
                0x00000000100066c0                __aeabi_mem_init
 .text.memset   0x00000000100066d0        0xc CMakeFiles/SPO.dir/mnt/c/study/GRAD/249A/proj/EECS249-Smart-Pill-Organizer/pico-sdk/src/rp2_common/pico_mem_ops/mem_ops_aeabi.S.obj
                0x00000000100066d0                __wrap_memset
 .text.memcpy   0x00000000100066dc        0xc CMakeFiles/SPO.dir/mnt/c/study/GRAD/249A/proj/EECS249-Smart-Pill-Organizer/pico-sdk/src/rp2_common/pico_mem_ops/mem_ops_aeabi.S.obj
                0x00000000100066dc                __wrap___aeabi_memcpy
                0x00000000100066dc                __wrap_memcpy
 .text.stdio_out_chars_crlf
                0x00000000100066e8       0xbc CMakeFiles/SPO.dir/mnt/c/study/GRAD/249A/proj/EECS249-Smart-Pill-Organizer/pico-sdk/src/rp2_common/pico_stdio/stdio.c.obj
 .text.stdio_buffered_printer
                0x00000000100067a4       0x64 CMakeFiles/SPO.dir/mnt/c/study/GRAD/249A/proj/EECS249-Smart-Pill-Organizer/pico-sdk/src/rp2_common/pico_stdio/stdio.c.obj
 .text.__wrap_puts
                0x0000000010006808       0xdc CMakeFiles/SPO.dir/mnt/c/study/GRAD/249A/proj/EECS249-Smart-Pill-Organizer/pico-sdk/src/rp2_common/pico_stdio/stdio.c.obj
                0x0000000010006808                __wrap_puts
 .text._read    0x00000000100068e4       0x8c CMakeFiles/SPO.dir/mnt/c/study/GRAD/249A/proj/EECS249-Smart-Pill-Organizer/pico-sdk/src/rp2_common/pico_stdio/stdio.c.obj
                0x00000000100068e4                _read
 .text._write   0x0000000010006970       0xa8 CMakeFiles/SPO.dir/mnt/c/study/GRAD/249A/proj/EECS249-Smart-Pill-Organizer/pico-sdk/src/rp2_common/pico_stdio/stdio.c.obj
                0x0000000010006970                _write
 .text.stdio_set_driver_enabled
                0x0000000010006a18       0x3c CMakeFiles/SPO.dir/mnt/c/study/GRAD/249A/proj/EECS249-Smart-Pill-Organizer/pico-sdk/src/rp2_common/pico_stdio/stdio.c.obj
                0x0000000010006a18                stdio_set_driver_enabled
 .text.__wrap_vprintf
                0x0000000010006a54       0xd0 CMakeFiles/SPO.dir/mnt/c/study/GRAD/249A/proj/EECS249-Smart-Pill-Organizer/pico-sdk/src/rp2_common/pico_stdio/stdio.c.obj
                0x0000000010006a54                __wrap_vprintf
 .text.__wrap_printf
                0x0000000010006b24       0x18 CMakeFiles/SPO.dir/mnt/c/study/GRAD/249A/proj/EECS249-Smart-Pill-Organizer/pico-sdk/src/rp2_common/pico_stdio/stdio.c.obj
                0x0000000010006b24                __wrap_printf
 .text.stdio_init_all
                0x0000000010006b3c        0x8 CMakeFiles/SPO.dir/mnt/c/study/GRAD/249A/proj/EECS249-Smart-Pill-Organizer/pico-sdk/src/rp2_common/pico_stdio/stdio.c.obj
                0x0000000010006b3c                stdio_init_all
 .text.stdio_uart_out_chars
                0x0000000010006b44       0x4c CMakeFiles/SPO.dir/mnt/c/study/GRAD/249A/proj/EECS249-Smart-Pill-Organizer/pico-sdk/src/rp2_common/pico_stdio_uart/stdio_uart.c.obj
 .text.stdio_uart_in_chars
                0x0000000010006b90       0x3c CMakeFiles/SPO.dir/mnt/c/study/GRAD/249A/proj/EECS249-Smart-Pill-Organizer/pico-sdk/src/rp2_common/pico_stdio_uart/stdio_uart.c.obj
                0x0000000010006b90                stdio_uart_in_chars
 .text.stdio_uart_init
                0x0000000010006bcc       0x48 CMakeFiles/SPO.dir/mnt/c/study/GRAD/249A/proj/EECS249-Smart-Pill-Organizer/pico-sdk/src/rp2_common/pico_stdio_uart/stdio_uart.c.obj
                0x0000000010006bcc                stdio_uart_init
 .text          0x0000000010006c14       0x10 /usr/lib/gcc/arm-none-eabi/6.3.1/../../../arm-none-eabi/lib/thumb/v6-m/libc.a(lib_a-atexit.o)
                0x0000000010006c14                atexit
 .text          0x0000000010006c24       0x18 /usr/lib/gcc/arm-none-eabi/6.3.1/../../../arm-none-eabi/lib/thumb/v6-m/libc.a(lib_a-atoi.o)
                0x0000000010006c24                atoi
                0x0000000010006c30                _atoi_r
 .text          0x0000000010006c3c       0x18 /usr/lib/gcc/arm-none-eabi/6.3.1/../../../arm-none-eabi/lib/thumb/v6-m/libc.a(lib_a-atoll.o)
                0x0000000010006c3c                atoll
                0x0000000010006c48                _atoll_r
 .text          0x0000000010006c54       0x18 /usr/lib/gcc/arm-none-eabi/6.3.1/../../../arm-none-eabi/lib/thumb/v6-m/libc.a(lib_a-calloc.o)
                0x0000000010006c54                calloc
 .text          0x0000000010006c6c       0x58 /usr/lib/gcc/arm-none-eabi/6.3.1/../../../arm-none-eabi/lib/thumb/v6-m/libc.a(lib_a-callocr.o)
                0x0000000010006c6c                _calloc_r
 .text          0x0000000010006cc4        0xc /usr/lib/gcc/arm-none-eabi/6.3.1/../../../arm-none-eabi/lib/thumb/v6-m/libc.a(lib_a-ctime.o)
                0x0000000010006cc4                ctime
 .text          0x0000000010006cd0       0x14 /usr/lib/gcc/arm-none-eabi/6.3.1/../../../arm-none-eabi/lib/thumb/v6-m/libc.a(lib_a-lcltime.o)
                0x0000000010006cd0                localtime
 .text          0x0000000010006ce4      0x214 /usr/lib/gcc/arm-none-eabi/6.3.1/../../../arm-none-eabi/lib/thumb/v6-m/libc.a(lib_a-lcltime_r.o)
                0x0000000010006ce4                localtime_r
 .text          0x0000000010006ef8       0x28 /usr/lib/gcc/arm-none-eabi/6.3.1/../../../arm-none-eabi/lib/thumb/v6-m/libc.a(lib_a-malloc.o)
                0x0000000010006ef8                malloc
                0x0000000010006f0c                free
 .text          0x0000000010006f20      0x558 /usr/lib/gcc/arm-none-eabi/6.3.1/../../../arm-none-eabi/lib/thumb/v6-m/libc.a(lib_a-mallocr.o)
                0x0000000010006f20                _malloc_r
 .text          0x0000000010007478        0x8 /usr/lib/gcc/arm-none-eabi/6.3.1/../../../arm-none-eabi/lib/thumb/v6-m/libc.a(lib_a-mlock.o)
                0x0000000010007478                __malloc_lock
                0x000000001000747c                __malloc_unlock
 .text          0x0000000010007480       0x18 /usr/lib/gcc/arm-none-eabi/6.3.1/../../../arm-none-eabi/lib/thumb/v6-m/libc.a(lib_a-realloc.o)
                0x0000000010007480                realloc
 .text          0x0000000010007498      0x37c /usr/lib/gcc/arm-none-eabi/6.3.1/../../../arm-none-eabi/lib/thumb/v6-m/libc.a(lib_a-reallocr.o)
                0x0000000010007498                _realloc_r
 .text          0x0000000010007814       0x24 /usr/lib/gcc/arm-none-eabi/6.3.1/../../../arm-none-eabi/lib/thumb/v6-m/libc.a(lib_a-sbrkr.o)
                0x0000000010007814                _sbrk_r
 .text          0x0000000010007838      0x190 /usr/lib/gcc/arm-none-eabi/6.3.1/../../../arm-none-eabi/lib/thumb/v6-m/libc.a(lib_a-signal.o)
                0x0000000010007864                _init_signal_r
                0x0000000010007880                _signal_r
                0x00000000100078bc                _raise_r
                0x0000000010007918                __sigtramp_r
                0x0000000010007968                raise
                0x000000001000797c                signal
                0x0000000010007994                _init_signal
                0x00000000100079b4                __sigtramp
 .text          0x00000000100079c8       0x30 /usr/lib/gcc/arm-none-eabi/6.3.1/../../../arm-none-eabi/lib/thumb/v6-m/libc.a(lib_a-signalr.o)
                0x00000000100079c8                _kill_r
                0x00000000100079f0                _getpid_r
 .text          0x00000000100079f8       0x88 /usr/lib/gcc/arm-none-eabi/6.3.1/../../../arm-none-eabi/lib/thumb/v6-m/libc.a(lib_a-strcmp.o)
                0x00000000100079f8                strcmp
 .text          0x0000000010007a80       0x64 /usr/lib/gcc/arm-none-eabi/6.3.1/../../../arm-none-eabi/lib/thumb/v6-m/libc.a(lib_a-strlen-stub.o)
                0x0000000010007a80                strlen
 .text          0x0000000010007ae4       0x94 /usr/lib/gcc/arm-none-eabi/6.3.1/../../../arm-none-eabi/lib/thumb/v6-m/libc.a(lib_a-strncmp.o)
                0x0000000010007ae4                strncmp
 .text          0x0000000010007b78      0x190 /usr/lib/gcc/arm-none-eabi/6.3.1/../../../arm-none-eabi/lib/thumb/v6-m/libc.a(lib_a-strtol.o)
                0x0000000010007b78                _strtol_r
                0x0000000010007cf0                strtol
 .text          0x0000000010007d08       0x18 /usr/lib/gcc/arm-none-eabi/6.3.1/../../../arm-none-eabi/lib/thumb/v6-m/libc.a(lib_a-strtoll.o)
                0x0000000010007d08                strtoll
 .text          0x0000000010007d20      0x1d8 /usr/lib/gcc/arm-none-eabi/6.3.1/../../../arm-none-eabi/lib/thumb/v6-m/libc.a(lib_a-strtoll_r.o)
                0x0000000010007d20                _strtoll_r
 .text          0x0000000010007ef8      0x19c /usr/lib/gcc/arm-none-eabi/6.3.1/../../../arm-none-eabi/lib/thumb/v6-m/libc.a(lib_a-tzcalc_limits.o)
                0x0000000010007ef8                __tzcalc_limits
 .text          0x0000000010008094        0x8 /usr/lib/gcc/arm-none-eabi/6.3.1/../../../arm-none-eabi/lib/thumb/v6-m/libc.a(lib_a-tzlock.o)
                0x0000000010008094                __tz_lock
                0x0000000010008098                __tz_unlock
 .text          0x000000001000809c       0x28 /usr/lib/gcc/arm-none-eabi/6.3.1/../../../arm-none-eabi/lib/thumb/v6-m/libc.a(lib_a-tzset.o)
                0x000000001000809c                _tzset_unlocked
                0x00000000100080ac                tzset
 .text          0x00000000100080c4      0x364 /usr/lib/gcc/arm-none-eabi/6.3.1/../../../arm-none-eabi/lib/thumb/v6-m/libc.a(lib_a-tzset_r.o)
                0x00000000100080c4                _tzset_unlocked_r
                0x0000000010008414                _tzset_r
 .text          0x0000000010008428     0x1694 /usr/lib/gcc/arm-none-eabi/6.3.1/../../../arm-none-eabi/lib/thumb/v6-m/libc.a(lib_a-vfprintf.o)
                0x0000000010008428                _vfprintf_r
                0x0000000010009a30                vfprintf
 .text          0x0000000010009abc       0xd4 /usr/lib/gcc/arm-none-eabi/6.3.1/../../../arm-none-eabi/lib/thumb/v6-m/libc.a(lib_a-wbuf.o)
                0x0000000010009abc                __swbuf_r
                0x0000000010009b78                __swbuf
 .text          0x0000000010009b90       0xd4 /usr/lib/gcc/arm-none-eabi/6.3.1/../../../arm-none-eabi/lib/thumb/v6-m/libc.a(lib_a-wsetup.o)
                0x0000000010009b90                __swsetup_r
 .text          0x0000000010009c64       0xd4 /usr/lib/gcc/arm-none-eabi/6.3.1/../../../arm-none-eabi/lib/thumb/v6-m/libc.a(lib_a-__atexit.o)
                0x0000000010009c64                __register_exitproc
 .text          0x0000000010009d38       0x14 /usr/lib/gcc/arm-none-eabi/6.3.1/../../../arm-none-eabi/lib/thumb/v6-m/libc.a(lib_a-asctime.o)
                0x0000000010009d38                asctime
 .text          0x0000000010009d4c       0x50 /usr/lib/gcc/arm-none-eabi/6.3.1/../../../arm-none-eabi/lib/thumb/v6-m/libc.a(lib_a-asctime_r.o)
                0x0000000010009d4c                asctime_r
 .text          0x0000000010009d9c     0x10dc /usr/lib/gcc/arm-none-eabi/6.3.1/../../../arm-none-eabi/lib/thumb/v6-m/libc.a(lib_a-dtoa.o)
                0x0000000010009ef0                _dtoa_r
 .text          0x000000001000ae78      0x1a4 /usr/lib/gcc/arm-none-eabi/6.3.1/../../../arm-none-eabi/lib/thumb/v6-m/libc.a(lib_a-fflush.o)
                0x000000001000ae78                __sflush_r
                0x000000001000afc8                _fflush_r
                0x000000001000aff4                fflush
 .text          0x000000001000b01c      0x22c /usr/lib/gcc/arm-none-eabi/6.3.1/../../../arm-none-eabi/lib/thumb/v6-m/libc.a(lib_a-findfp.o)
                0x000000001000b020                _cleanup_r
                0x000000001000b124                __sfmoreglue
                0x000000001000b154                __sfp
                0x000000001000b1e0                _cleanup
                0x000000001000b1f8                __sinit
                0x000000001000b208                __sfp_lock_acquire
                0x000000001000b20c                __sfp_lock_release
                0x000000001000b210                __sinit_lock_acquire
                0x000000001000b214                __sinit_lock_release
                0x000000001000b218                __fp_lock_all
                0x000000001000b230                __fp_unlock_all
 .text          0x000000001000b248      0x25c /usr/lib/gcc/arm-none-eabi/6.3.1/../../../arm-none-eabi/lib/thumb/v6-m/libc.a(lib_a-freer.o)
                0x000000001000b248                _malloc_trim_r
                0x000000001000b2e8                _free_r
 .text          0x000000001000b4a4       0x90 /usr/lib/gcc/arm-none-eabi/6.3.1/../../../arm-none-eabi/lib/thumb/v6-m/libc.a(lib_a-fwalk.o)
                0x000000001000b4a4                _fwalk
                0x000000001000b4e8                _fwalk_reent
 .text          0x000000001000b534       0x9c /usr/lib/gcc/arm-none-eabi/6.3.1/../../../arm-none-eabi/lib/thumb/v6-m/libc.a(lib_a-getenv_r.o)
                0x000000001000b534                _findenv_r
                0x000000001000b5c0                _getenv_r
 .text          0x000000001000b5d0        0x8 /usr/lib/gcc/arm-none-eabi/6.3.1/../../../arm-none-eabi/lib/thumb/v6-m/libc.a(lib_a-gettzinfo.o)
                0x000000001000b5d0                __gettzinfo
 .text          0x000000001000b5d8      0x188 /usr/lib/gcc/arm-none-eabi/6.3.1/../../../arm-none-eabi/lib/thumb/v6-m/libc.a(lib_a-gmtime_r.o)
                0x000000001000b5d8                gmtime_r
 .text          0x000000001000b760       0x98 /usr/lib/gcc/arm-none-eabi/6.3.1/../../../arm-none-eabi/lib/thumb/v6-m/libc.a(lib_a-locale.o)
                0x000000001000b760                _setlocale_r
                0x000000001000b7a4                __locale_charset
                0x000000001000b7ac                __locale_mb_cur_max
                0x000000001000b7b8                __locale_msgcharset
                0x000000001000b7c4                __locale_cjk_lang
                0x000000001000b7c8                _localeconv_r
                0x000000001000b7d4                setlocale
                0x000000001000b7ec                localeconv
 .text          0x000000001000b7f8       0xe8 /usr/lib/gcc/arm-none-eabi/6.3.1/../../../arm-none-eabi/lib/thumb/v6-m/libc.a(lib_a-makebuf.o)
                0x000000001000b7f8                __swhatbuf_r
                0x000000001000b858                __smakebuf_r
 .text          0x000000001000b8e0      0x990 /usr/lib/gcc/arm-none-eabi/6.3.1/../../../arm-none-eabi/lib/thumb/v6-m/libc.a(lib_a-mprec.o)
                0x000000001000b8e0                _Balloc
                0x000000001000b930                _Bfree
                0x000000001000b944                __multadd
                0x000000001000b9d0                __s2b
                0x000000001000ba64                __hi0bits
                0x000000001000ba98                __lo0bits
                0x000000001000baf4                __i2b
                0x000000001000bb08                __multiply
                0x000000001000bc5c                __pow5mult
                0x000000001000bd1c                __lshift
                0x000000001000bddc                __mcmp
                0x000000001000be10                __mdiff
                0x000000001000bf48                __ulp
                0x000000001000bf94                __b2d
                0x000000001000c06c                __d2b
                0x000000001000c128                __ratio
                0x000000001000c19c                _mprec_log10
                0x000000001000c1d0                __copybits
                0x000000001000c210                __any_on
 .text          0x000000001000c270       0x84 /usr/lib/gcc/arm-none-eabi/6.3.1/../../../arm-none-eabi/lib/thumb/v6-m/libc.a(lib_a-siprintf.o)
                0x000000001000c270                _siprintf_r
                0x000000001000c2b0                siprintf
 .text          0x000000001000c2f4       0x9c /usr/lib/gcc/arm-none-eabi/6.3.1/../../../arm-none-eabi/lib/thumb/v6-m/libc.a(lib_a-siscanf.o)
                0x000000001000c2f4                siscanf
                0x000000001000c344                _siscanf_r
 .text          0x000000001000c390       0xa0 /usr/lib/gcc/arm-none-eabi/6.3.1/../../../arm-none-eabi/lib/thumb/v6-m/libc.a(lib_a-stdio.o)
                0x000000001000c390                __sread
                0x000000001000c3b8                __seofread
                0x000000001000c3bc                __swrite
                0x000000001000c3f8                __sseek
                0x000000001000c424                __sclose
 .text          0x000000001000c430       0x10 /usr/lib/gcc/arm-none-eabi/6.3.1/../../../arm-none-eabi/lib/thumb/v6-m/libc.a(lib_a-strcpy.o)
                0x000000001000c430                strcpy
 .text          0x000000001000c440      0x1ac /usr/lib/gcc/arm-none-eabi/6.3.1/../../../arm-none-eabi/lib/thumb/v6-m/libc.a(lib_a-strtoul.o)
                0x000000001000c440                _strtoul_r
                0x000000001000c5d4                strtoul
 .text          0x000000001000c5ec      0xb90 /usr/lib/gcc/arm-none-eabi/6.3.1/../../../arm-none-eabi/lib/thumb/v6-m/libc.a(lib_a-svfiprintf.o)
                0x000000001000c5ec                __ssprint_r
                0x000000001000c70c                _svfiprintf_r
 .text          0x000000001000d17c      0xad0 /usr/lib/gcc/arm-none-eabi/6.3.1/../../../arm-none-eabi/lib/thumb/v6-m/libc.a(lib_a-svfiscanf.o)
                0x000000001000d17c                _sungetc_r
                0x000000001000d200                __ssrefill_r
                0x000000001000d240                _sfread_r
                0x000000001000d2d0                __ssvfiscanf_r
 .text          0x000000001000dc4c      0x17c /usr/lib/gcc/arm-none-eabi/6.3.1/../../../arm-none-eabi/lib/thumb/v6-m/libc.a(lib_a-ungetc.o)
                0x000000001000dc4c                __submore
                0x000000001000dcd0                _ungetc_r
                0x000000001000ddb0                ungetc
 .text          0x000000001000ddc8      0xd3c /usr/lib/gcc/arm-none-eabi/6.3.1/../../../arm-none-eabi/lib/thumb/v6-m/libc.a(lib_a-vfiprintf.o)
                0x000000001000de4c                __sprint_r
                0x000000001000de60                _vfiprintf_r
                0x000000001000ea78                vfiprintf
 .text          0x000000001000eb04       0x28 /usr/lib/gcc/arm-none-eabi/6.3.1/../../../arm-none-eabi/lib/thumb/v6-m/libc.a(lib_a-writer.o)
                0x000000001000eb04                _write_r
 .text          0x000000001000eb2c       0x24 /usr/lib/gcc/arm-none-eabi/6.3.1/../../../arm-none-eabi/lib/thumb/v6-m/libc.a(lib_a-closer.o)
                0x000000001000eb2c                _close_r
 .text          0x000000001000eb50        0x8 /usr/lib/gcc/arm-none-eabi/6.3.1/../../../arm-none-eabi/lib/thumb/v6-m/libc.a(lib_a-envlock.o)
                0x000000001000eb50                __env_lock
                0x000000001000eb54                __env_unlock
 .text          0x000000001000eb58       0xa0 /usr/lib/gcc/arm-none-eabi/6.3.1/../../../arm-none-eabi/lib/thumb/v6-m/libc.a(lib_a-fclose.o)
                0x000000001000eb58                _fclose_r
                0x000000001000ebe4                fclose
 .text          0x000000001000ebf8       0xfc /usr/lib/gcc/arm-none-eabi/6.3.1/../../../arm-none-eabi/lib/thumb/v6-m/libc.a(lib_a-fputwc.o)
                0x000000001000ebf8                __fputwc
                0x000000001000ec90                _fputwc_r
                0x000000001000ecb0                fputwc
 .text          0x000000001000ecf4       0x28 /usr/lib/gcc/arm-none-eabi/6.3.1/../../../arm-none-eabi/lib/thumb/v6-m/libc.a(lib_a-fstatr.o)
                0x000000001000ecf4                _fstat_r
 .text          0x000000001000ed1c      0x304 /usr/lib/gcc/arm-none-eabi/6.3.1/../../../arm-none-eabi/lib/thumb/v6-m/libc.a(lib_a-fvwrite.o)
                0x000000001000ed1c                __sfvwrite_r
 .text          0x000000001000f020       0x24 /usr/lib/gcc/arm-none-eabi/6.3.1/../../../arm-none-eabi/lib/thumb/v6-m/libc.a(lib_a-isattyr.o)
                0x000000001000f020                _isatty_r
 .text          0x000000001000f044       0x1c /usr/lib/gcc/arm-none-eabi/6.3.1/../../../arm-none-eabi/lib/thumb/v6-m/libc.a(lib_a-iswspace.o)
                0x000000001000f044                iswspace
 .text          0x000000001000f060       0x28 /usr/lib/gcc/arm-none-eabi/6.3.1/../../../arm-none-eabi/lib/thumb/v6-m/libc.a(lib_a-lseekr.o)
                0x000000001000f060                _lseek_r
 .text          0x000000001000f088       0xcc /usr/lib/gcc/arm-none-eabi/6.3.1/../../../arm-none-eabi/lib/thumb/v6-m/libc.a(lib_a-mbrtowc.o)
                0x000000001000f088                _mbrtowc_r
                0x000000001000f0ec                mbrtowc
 .text          0x000000001000f154       0x60 /usr/lib/gcc/arm-none-eabi/6.3.1/../../../arm-none-eabi/lib/thumb/v6-m/libc.a(lib_a-mbtowc_r.o)
                0x000000001000f154                __ascii_mbtowc
                0x000000001000f180                _mbtowc_r
 .text          0x000000001000f1b4       0x28 /usr/lib/gcc/arm-none-eabi/6.3.1/../../../arm-none-eabi/lib/thumb/v6-m/libc.a(lib_a-readr.o)
                0x000000001000f1b4                _read_r
 .text          0x000000001000f1dc       0x6c /usr/lib/gcc/arm-none-eabi/6.3.1/../../../arm-none-eabi/lib/thumb/v6-m/libc.a(lib_a-sccl.o)
                0x000000001000f1dc                __sccl
 .text          0x000000001000f248      0x1e0 /usr/lib/gcc/arm-none-eabi/6.3.1/../../../arm-none-eabi/lib/thumb/v6-m/libc.a(lib_a-strtoull_r.o)
                0x000000001000f248                _strtoull_r
 .text          0x000000001000f428       0xb4 /usr/lib/gcc/arm-none-eabi/6.3.1/../../../arm-none-eabi/lib/thumb/v6-m/libc.a(lib_a-wcrtomb.o)
                0x000000001000f428                _wcrtomb_r
                0x000000001000f480                wcrtomb
 .text          0x000000001000f4dc       0x50 /usr/lib/gcc/arm-none-eabi/6.3.1/../../../arm-none-eabi/lib/thumb/v6-m/libc.a(lib_a-wctomb_r.o)
                0x000000001000f4dc                __ascii_wctomb
                0x000000001000f4f8                _wctomb_r
 .text          0x000000001000f52c       0x10 /usr/lib/gcc/arm-none-eabi/6.3.1/../../../arm-none-eabi/lib/thumb/v6-m/libnosys.a(close.o)
                0x000000001000f52c                _close
 .text          0x000000001000f53c       0x10 /usr/lib/gcc/arm-none-eabi/6.3.1/../../../arm-none-eabi/lib/thumb/v6-m/libnosys.a(fstat.o)
                0x000000001000f53c                _fstat
 .text          0x000000001000f54c       0x10 /usr/lib/gcc/arm-none-eabi/6.3.1/../../../arm-none-eabi/lib/thumb/v6-m/libnosys.a(getpid.o)
                0x000000001000f54c                _getpid
 .text          0x000000001000f55c       0x10 /usr/lib/gcc/arm-none-eabi/6.3.1/../../../arm-none-eabi/lib/thumb/v6-m/libnosys.a(isatty.o)
                0x000000001000f55c                _isatty
 .text          0x000000001000f56c       0x10 /usr/lib/gcc/arm-none-eabi/6.3.1/../../../arm-none-eabi/lib/thumb/v6-m/libnosys.a(kill.o)
                0x000000001000f56c                _kill
 .text          0x000000001000f57c       0x10 /usr/lib/gcc/arm-none-eabi/6.3.1/../../../arm-none-eabi/lib/thumb/v6-m/libnosys.a(lseek.o)
                0x000000001000f57c                _lseek
 *(.fini)
 .fini          0x000000001000f58c        0x4 /usr/lib/gcc/arm-none-eabi/6.3.1/thumb/v6-m/crti.o
                0x000000001000f58c                _fini
 .fini.__stub   0x000000001000f590       0x70 linker stubs
 *crtbegin.o(.ctors)
 *crtbegin?.o(.ctors)
 *(EXCLUDE_FILE(*crtend.o *crtend?.o) .ctors)
 *(SORT(.ctors.*))
 *(.ctors)
 *crtbegin.o(.dtors)
 *crtbegin?.o(.dtors)
 *(EXCLUDE_FILE(*crtend.o *crtend?.o) .dtors)
 *(SORT(.dtors.*))
 *(.dtors)
 *(.eh_frame*)
 .eh_frame      0x000000001000f600        0x0 /usr/lib/gcc/arm-none-eabi/6.3.1/thumb/v6-m/crtbegin.o
                0x000000001000f600                . = ALIGN (0x4)

.glue_7         0x000000001000f600        0x0
 .glue_7        0x000000001000f600        0x0 linker stubs

.glue_7t        0x000000001000f600        0x0
 .glue_7t       0x000000001000f600        0x0 linker stubs

.vfp11_veneer   0x000000001000f600        0x0
 .vfp11_veneer  0x000000001000f600        0x0 linker stubs

.v4_bx          0x000000001000f600        0x0
 .v4_bx         0x000000001000f600        0x0 linker stubs

.iplt           0x000000001000f600        0x0
 .iplt          0x000000001000f600        0x0 /usr/lib/gcc/arm-none-eabi/6.3.1/thumb/v6-m/crtbegin.o

.rodata         0x000000001000f600     0x1718
 *(EXCLUDE_FILE(*libm.a: *libc.a:*lib_a-mem*.o *libgcc.a:) .rodata*)
 .rodata.__bi_28.7524
                0x000000001000f600        0xc CMakeFiles/SPO.dir/Main.c.obj
 .rodata.__bi_29.7527
                0x000000001000f60c        0xc CMakeFiles/SPO.dir/Main.c.obj
 .rodata._lf_advance_logical_time.str1.4
                0x000000001000f618       0x40 CMakeFiles/SPO.dir/Main.c.obj
 .rodata._lf_done_using.str1.4
                0x000000001000f658       0x32 CMakeFiles/SPO.dir/Main.c.obj
 *fill*         0x000000001000f68a        0x2 
 .rodata._lf_message_print.str1.4
                0x000000001000f68c       0x1b CMakeFiles/SPO.dir/Main.c.obj
 *fill*         0x000000001000f6a7        0x1 
 .rodata._lf_pop_events.str1.4
                0x000000001000f6a8       0x8e CMakeFiles/SPO.dir/Main.c.obj
 *fill*         0x000000001000f736        0x2 
 .rodata.error_print.str1.4
                0x000000001000f738        0x8 CMakeFiles/SPO.dir/Main.c.obj
 .rodata.error_print_and_exit.str1.4
                0x000000001000f740        0xe CMakeFiles/SPO.dir/Main.c.obj
 *fill*         0x000000001000f74e        0x2 
 .rodata.find_equal_same_priority.str1.4
                0x000000001000f750       0x3d CMakeFiles/SPO.dir/Main.c.obj
 *fill*         0x000000001000f78d        0x3 
 .rodata.get_physical_time.str1.4
                0x000000001000f790       0x23 CMakeFiles/SPO.dir/Main.c.obj
 .rodata.info_print.str1.4
                0x000000001000f7b3       0x23 CMakeFiles/SPO.dir/Main.c.obj
                                          0x1 (size before relaxing)
 *fill*         0x000000001000f7b3        0x1 
 .rodata.initialize.str1.4
                0x000000001000f7b4       0x3f CMakeFiles/SPO.dir/Main.c.obj
 *fill*         0x000000001000f7f3        0x1 
 .rodata.lf_comma_separated_time.str1.4
                0x000000001000f7f4       0x14 CMakeFiles/SPO.dir/Main.c.obj
                                         0x18 (size before relaxing)
 .rodata.lf_reactor_c_main.str1.4
                0x000000001000f808       0x29 CMakeFiles/SPO.dir/Main.c.obj
 *fill*         0x000000001000f831        0x3 
 .rodata.process_args.str1.4
                0x000000001000f834      0x22f CMakeFiles/SPO.dir/Main.c.obj
 *fill*         0x000000001000fa63        0x1 
 .rodata.str1.4
                0x000000001000fa64       0x34 CMakeFiles/SPO.dir/Main.c.obj
 .rodata.termination.str1.4
                0x000000001000fa98      0x182 CMakeFiles/SPO.dir/Main.c.obj
 *fill*         0x000000001000fc1a        0x2 
 .rodata.usage.str1.4
                0x000000001000fc1c      0x248 CMakeFiles/SPO.dir/Main.c.obj
                                        0x24c (size before relaxing)
 .rodata.warning_print.str1.4
                0x000000001000fe64        0xa CMakeFiles/SPO.dir/Main.c.obj
 *fill*         0x000000001000fe6e        0x2 
 .rodata.at_the_end_of_time
                0x000000001000fe70        0x8 CMakeFiles/SPO.dir/mnt/c/study/GRAD/249A/proj/EECS249-Smart-Pill-Organizer/pico-sdk/src/common/pico_time/time.c.obj
                0x000000001000fe70                at_the_end_of_time
 .rodata.hardware_alarm_claim.str1.4
                0x000000001000fe78       0x22 CMakeFiles/SPO.dir/mnt/c/study/GRAD/249A/proj/EECS249-Smart-Pill-Organizer/pico-sdk/src/rp2_common/hardware_timer/timer.c.obj
 *fill*         0x000000001000fe9a        0x2 
 .rodata.hard_assertion_failure.str1.4
                0x000000001000fe9c        0xc CMakeFiles/SPO.dir/mnt/c/study/GRAD/249A/proj/EECS249-Smart-Pill-Organizer/pico-sdk/src/rp2_common/pico_runtime/runtime.c.obj
 .rodata.panic.str1.4
                0x000000001000fea8       0x10 CMakeFiles/SPO.dir/mnt/c/study/GRAD/249A/proj/EECS249-Smart-Pill-Organizer/pico-sdk/src/rp2_common/pico_runtime/runtime.c.obj
                                         0x12 (size before relaxing)
 .rodata._vsnprintf
                0x000000001000feb8      0x1e0 CMakeFiles/SPO.dir/mnt/c/study/GRAD/249A/proj/EECS249-Smart-Pill-Organizer/pico-sdk/src/rp2_common/pico_printf/printf.c.obj
 .rodata._ftoa.str1.4
                0x0000000010010098       0x15 CMakeFiles/SPO.dir/mnt/c/study/GRAD/249A/proj/EECS249-Smart-Pill-Organizer/pico-sdk/src/rp2_common/pico_printf/printf.c.obj
 *fill*         0x00000000100100ad        0x3 
 .rodata.pow10.5356
                0x00000000100100b0       0x50 CMakeFiles/SPO.dir/mnt/c/study/GRAD/249A/proj/EECS249-Smart-Pill-Organizer/pico-sdk/src/rp2_common/pico_printf/printf.c.obj
 .rodata.__wrap_malloc.str1.4
                0x0000000010010100        0xe CMakeFiles/SPO.dir/mnt/c/study/GRAD/249A/proj/EECS249-Smart-Pill-Organizer/pico-sdk/src/rp2_common/pico_malloc/pico_malloc.c.obj
 *fill*         0x000000001001010e        0x2 
 .rodata.__bi_44
                0x0000000010010110        0xc CMakeFiles/SPO.dir/mnt/c/study/GRAD/249A/proj/EECS249-Smart-Pill-Organizer/pico-sdk/src/rp2_common/pico_standard_link/binary_info.c.obj
 .rodata.__bi_75
                0x000000001001011c        0xc CMakeFiles/SPO.dir/mnt/c/study/GRAD/249A/proj/EECS249-Smart-Pill-Organizer/pico-sdk/src/rp2_common/pico_standard_link/binary_info.c.obj
 .rodata.__bi_81
                0x0000000010010128        0xc CMakeFiles/SPO.dir/mnt/c/study/GRAD/249A/proj/EECS249-Smart-Pill-Organizer/pico-sdk/src/rp2_common/pico_standard_link/binary_info.c.obj
 .rodata.str1.4
                0x0000000010010134       0x38 CMakeFiles/SPO.dir/mnt/c/study/GRAD/249A/proj/EECS249-Smart-Pill-Organizer/pico-sdk/src/rp2_common/pico_standard_link/binary_info.c.obj
 .rodata.crlf_str.5936
                0x000000001001016c        0x2 CMakeFiles/SPO.dir/mnt/c/study/GRAD/249A/proj/EECS249-Smart-Pill-Organizer/pico-sdk/src/rp2_common/pico_stdio/stdio.c.obj
 *fill*         0x000000001001016e        0x2 
 .rodata.__bi_28.4722
                0x0000000010010170        0xc CMakeFiles/SPO.dir/mnt/c/study/GRAD/249A/proj/EECS249-Smart-Pill-Organizer/pico-sdk/src/rp2_common/pico_stdio_uart/stdio_uart.c.obj
 .rodata.__bi_29.4726
                0x000000001001017c        0x8 CMakeFiles/SPO.dir/mnt/c/study/GRAD/249A/proj/EECS249-Smart-Pill-Organizer/pico-sdk/src/rp2_common/pico_stdio_uart/stdio_uart.c.obj
 .rodata.str1.4
                0x0000000010010184       0x2c CMakeFiles/SPO.dir/mnt/c/study/GRAD/249A/proj/EECS249-Smart-Pill-Organizer/pico-sdk/src/rp2_common/pico_stdio_uart/stdio_uart.c.obj
 .rodata        0x00000000100101b0        0x4 /usr/lib/gcc/arm-none-eabi/6.3.1/../../../arm-none-eabi/lib/thumb/v6-m/libc.a(lib_a-impure.o)
                0x00000000100101b0                _global_impure_ptr
 .rodata.str1.4
                0x00000000100101b4        0x2 /usr/lib/gcc/arm-none-eabi/6.3.1/../../../arm-none-eabi/lib/thumb/v6-m/libc.a(lib_a-impure.o)
 *fill*         0x00000000100101b6        0x2 
 .rodata        0x00000000100101b8       0x60 /usr/lib/gcc/arm-none-eabi/6.3.1/../../../arm-none-eabi/lib/thumb/v6-m/libc.a(lib_a-month_lengths.o)
                0x00000000100101b8                __month_lengths
 .rodata.str1.4
                0x0000000010010218       0x53 /usr/lib/gcc/arm-none-eabi/6.3.1/../../../arm-none-eabi/lib/thumb/v6-m/libc.a(lib_a-tzset_r.o)
 .rodata.str1.4
                0x000000001001026b        0x4 /usr/lib/gcc/arm-none-eabi/6.3.1/../../../arm-none-eabi/lib/thumb/v6-m/libc.a(lib_a-tzvars.o)
 *fill*         0x000000001001026b        0x1 
 .rodata        0x000000001001026c      0x184 /usr/lib/gcc/arm-none-eabi/6.3.1/../../../arm-none-eabi/lib/thumb/v6-m/libc.a(lib_a-vfprintf.o)
 .rodata.str1.4
                0x00000000100103f0       0x3b /usr/lib/gcc/arm-none-eabi/6.3.1/../../../arm-none-eabi/lib/thumb/v6-m/libc.a(lib_a-vfprintf.o)
                                         0x42 (size before relaxing)
 *fill*         0x000000001001042b        0x1 
 .rodata        0x000000001001042c       0x39 /usr/lib/gcc/arm-none-eabi/6.3.1/../../../arm-none-eabi/lib/thumb/v6-m/libc.a(lib_a-asctime_r.o)
 *fill*         0x0000000010010465        0x3 
 .rodata.str1.4
                0x0000000010010468       0x20 /usr/lib/gcc/arm-none-eabi/6.3.1/../../../arm-none-eabi/lib/thumb/v6-m/libc.a(lib_a-asctime_r.o)
 .rodata        0x0000000010010488      0x101 /usr/lib/gcc/arm-none-eabi/6.3.1/../../../arm-none-eabi/lib/thumb/v6-m/libc.a(lib_a-ctype_.o)
                0x0000000010010488                _ctype_
 *fill*         0x0000000010010589        0x3 
 .rodata.str1.4
                0x000000001001058c       0x10 /usr/lib/gcc/arm-none-eabi/6.3.1/../../../arm-none-eabi/lib/thumb/v6-m/libc.a(lib_a-dtoa.o)
                                         0x12 (size before relaxing)
 .rodata.str1.4
                0x000000001001059c        0x8 /usr/lib/gcc/arm-none-eabi/6.3.1/../../../arm-none-eabi/lib/thumb/v6-m/libc.a(lib_a-locale.o)
                                         0x12 (size before relaxing)
 *fill*         0x00000000100105a4        0x4 
 .rodata        0x00000000100105a8      0x128 /usr/lib/gcc/arm-none-eabi/6.3.1/../../../arm-none-eabi/lib/thumb/v6-m/libc.a(lib_a-mprec.o)
                0x00000000100105b8                __mprec_tens
                0x0000000010010680                __mprec_tinytens
                0x00000000100106a8                __mprec_bigtens
 .rodata        0x00000000100106d0      0x184 /usr/lib/gcc/arm-none-eabi/6.3.1/../../../arm-none-eabi/lib/thumb/v6-m/libc.a(lib_a-svfiprintf.o)
 .rodata.str1.4
                0x0000000010010854       0x2f /usr/lib/gcc/arm-none-eabi/6.3.1/../../../arm-none-eabi/lib/thumb/v6-m/libc.a(lib_a-svfiprintf.o)
 .rodata        0x0000000010010854      0x33e /usr/lib/gcc/arm-none-eabi/6.3.1/../../../arm-none-eabi/lib/thumb/v6-m/libc.a(lib_a-svfiscanf.o)
 *fill*         0x0000000010010b92        0x2 
 .rodata        0x0000000010010b94      0x184 /usr/lib/gcc/arm-none-eabi/6.3.1/../../../arm-none-eabi/lib/thumb/v6-m/libc.a(lib_a-vfiprintf.o)
 .rodata.str1.4
                0x0000000010010d18       0x2f /usr/lib/gcc/arm-none-eabi/6.3.1/../../../arm-none-eabi/lib/thumb/v6-m/libc.a(lib_a-vfiprintf.o)
 .rodata.str1.4
                0x0000000010010d18        0x1 /usr/lib/gcc/arm-none-eabi/6.3.1/../../../arm-none-eabi/lib/thumb/v6-m/libc.a(lib_a-mbrtowc.o)
                0x0000000010010d48                . = ALIGN (0x4)
 *(SORT(.flashdata*))
                0x0000000010010d48                . = ALIGN (0x4)

.rel.dyn        0x0000000010010d18        0x0
 .rel.iplt      0x0000000010010d18        0x0 /usr/lib/gcc/arm-none-eabi/6.3.1/thumb/v6-m/crtbegin.o

.ARM.extab
 *(.ARM.extab* .gnu.linkonce.armextab.*)
                0x0000000010010d18                __exidx_start = .

.ARM.exidx
 *(.ARM.exidx* .gnu.linkonce.armexidx.*)
                0x0000000010010d18                __exidx_end = .
                0x0000000010010d18                . = ALIGN (0x4)
                0x0000000010010d18                __binary_info_start = .

.binary_info    0x0000000010010d18       0x2c
 *(.binary_info.keep.*)
 .binary_info.keep.__bi_ptr28
                0x0000000010010d18        0x4 CMakeFiles/SPO.dir/Main.c.obj
 .binary_info.keep.__bi_ptr29
                0x0000000010010d1c        0x4 CMakeFiles/SPO.dir/Main.c.obj
 .binary_info.keep.__bi_ptr22
                0x0000000010010d20        0x4 CMakeFiles/SPO.dir/mnt/c/study/GRAD/249A/proj/EECS249-Smart-Pill-Organizer/pico-sdk/src/rp2_common/pico_standard_link/binary_info.c.obj
 .binary_info.keep.__bi_ptr30
                0x0000000010010d24        0x4 CMakeFiles/SPO.dir/mnt/c/study/GRAD/249A/proj/EECS249-Smart-Pill-Organizer/pico-sdk/src/rp2_common/pico_standard_link/binary_info.c.obj
 .binary_info.keep.__bi_ptr38
                0x0000000010010d28        0x4 CMakeFiles/SPO.dir/mnt/c/study/GRAD/249A/proj/EECS249-Smart-Pill-Organizer/pico-sdk/src/rp2_common/pico_standard_link/binary_info.c.obj
 .binary_info.keep.__bi_ptr44
                0x0000000010010d2c        0x4 CMakeFiles/SPO.dir/mnt/c/study/GRAD/249A/proj/EECS249-Smart-Pill-Organizer/pico-sdk/src/rp2_common/pico_standard_link/binary_info.c.obj
 .binary_info.keep.__bi_ptr50
                0x0000000010010d30        0x4 CMakeFiles/SPO.dir/mnt/c/study/GRAD/249A/proj/EECS249-Smart-Pill-Organizer/pico-sdk/src/rp2_common/pico_standard_link/binary_info.c.obj
 .binary_info.keep.__bi_ptr75
                0x0000000010010d34        0x4 CMakeFiles/SPO.dir/mnt/c/study/GRAD/249A/proj/EECS249-Smart-Pill-Organizer/pico-sdk/src/rp2_common/pico_standard_link/binary_info.c.obj
 .binary_info.keep.__bi_ptr81
                0x0000000010010d38        0x4 CMakeFiles/SPO.dir/mnt/c/study/GRAD/249A/proj/EECS249-Smart-Pill-Organizer/pico-sdk/src/rp2_common/pico_standard_link/binary_info.c.obj
 *(.binary_info.*)
 .binary_info.__bi_ptr28
                0x0000000010010d3c        0x4 CMakeFiles/SPO.dir/mnt/c/study/GRAD/249A/proj/EECS249-Smart-Pill-Organizer/pico-sdk/src/rp2_common/pico_stdio_uart/stdio_uart.c.obj
 .binary_info.__bi_ptr29
                0x0000000010010d40        0x4 CMakeFiles/SPO.dir/mnt/c/study/GRAD/249A/proj/EECS249-Smart-Pill-Organizer/pico-sdk/src/rp2_common/pico_stdio_uart/stdio_uart.c.obj
                0x0000000010010d44                __binary_info_end = .
                0x0000000010010d44                . = ALIGN (0x4)
                0x0000000010010d44                __etext = .

.ram_vector_table
                0x0000000020000000       0xc0
 *(.ram_vector_table)
 .ram_vector_table
                0x0000000020000000       0xc0 CMakeFiles/SPO.dir/mnt/c/study/GRAD/249A/proj/EECS249-Smart-Pill-Organizer/pico-sdk/src/rp2_common/pico_runtime/runtime.c.obj
                0x0000000020000000                ram_vector_table

.data           0x00000000200000c0      0xc08 load address 0x0000000010010d44
                0x00000000200000c0                __data_start__ = .
 *(vtable)
 *(.time_critical*)
 .time_critical.mutex_enter_blocking
                0x00000000200000c0       0x48 CMakeFiles/SPO.dir/mnt/c/study/GRAD/249A/proj/EECS249-Smart-Pill-Organizer/pico-sdk/src/common/pico_sync/mutex.c.obj
                0x00000000200000c0                mutex_enter_blocking
 .time_critical.mutex_try_enter
                0x0000000020000108       0x48 CMakeFiles/SPO.dir/mnt/c/study/GRAD/249A/proj/EECS249-Smart-Pill-Organizer/pico-sdk/src/common/pico_sync/mutex.c.obj
                0x0000000020000108                mutex_try_enter
 .time_critical.mutex_exit
                0x0000000020000150       0x28 CMakeFiles/SPO.dir/mnt/c/study/GRAD/249A/proj/EECS249-Smart-Pill-Organizer/pico-sdk/src/common/pico_sync/mutex.c.obj
                0x0000000020000150                mutex_exit
 *(.text*)
 .text          0x0000000020000178        0x4 /usr/lib/gcc/arm-none-eabi/6.3.1/thumb/v6-m/libgcc.a(_dvmd_tls.o)
                0x0000000020000178                __aeabi_ldiv0
                0x0000000020000178                __aeabi_idiv0
 .text          0x000000002000017c       0x80 /usr/lib/gcc/arm-none-eabi/6.3.1/../../../arm-none-eabi/lib/thumb/v6-m/libc.a(lib_a-memchr-stub.o)
                0x000000002000017c                memchr
 .text          0x00000000200001fc       0xa0 /usr/lib/gcc/arm-none-eabi/6.3.1/../../../arm-none-eabi/lib/thumb/v6-m/libc.a(lib_a-memmove.o)
                0x00000000200001fc                memmove
                0x000000002000029c                . = ALIGN (0x4)
 *(.rodata*)
                0x000000002000029c                . = ALIGN (0x4)
 *(.data*)
 .data._lf_handle
                0x000000002000029c        0x4 CMakeFiles/SPO.dir/Main.c.obj
                0x000000002000029c                _lf_handle
 .data._lf_last_reported_unadjusted_physical_time_ns
                0x00000000200002a0        0x8 CMakeFiles/SPO.dir/Main.c.obj
                0x00000000200002a0                _lf_last_reported_unadjusted_physical_time_ns
 .data._lf_my_fed_id
                0x00000000200002a8        0x4 CMakeFiles/SPO.dir/Main.c.obj
                0x00000000200002a8                _lf_my_fed_id
 .data._lf_startup_reactions_size
                0x00000000200002ac        0x4 CMakeFiles/SPO.dir/Main.c.obj
                0x00000000200002ac                _lf_startup_reactions_size
 .data.duration
                0x00000000200002b0        0x8 CMakeFiles/SPO.dir/Main.c.obj
                0x00000000200002b0                duration
 .data.federation_id
                0x00000000200002b8        0x4 CMakeFiles/SPO.dir/Main.c.obj
                0x00000000200002b8                federation_id
 *fill*         0x00000000200002bc        0x4 
 .data.physical_start_time
                0x00000000200002c0        0x8 CMakeFiles/SPO.dir/Main.c.obj
                0x00000000200002c0                physical_start_time
 .data.print_message_level
                0x00000000200002c8        0x4 CMakeFiles/SPO.dir/Main.c.obj
                0x00000000200002c8                print_message_level
 *fill*         0x00000000200002cc        0x4 
 .data.start_time
                0x00000000200002d0        0x8 CMakeFiles/SPO.dir/Main.c.obj
                0x00000000200002d0                start_time
 .data.stop_tag
                0x00000000200002d8       0x10 CMakeFiles/SPO.dir/Main.c.obj
                0x00000000200002d8                stop_tag
 .data.striped_spin_lock_num
                0x00000000200002e8        0x1 CMakeFiles/SPO.dir/mnt/c/study/GRAD/249A/proj/EECS249-Smart-Pill-Organizer/pico-sdk/src/rp2_common/hardware_sync/sync.c.obj
 *fill*         0x00000000200002e9        0x3 
 .data.default_alarm_pool
                0x00000000200002ec       0x18 CMakeFiles/SPO.dir/mnt/c/study/GRAD/249A/proj/EECS249-Smart-Pill-Organizer/pico-sdk/src/common/pico_time/time.c.obj
 .data.default_alarm_pool_heap
                0x0000000020000304       0x10 CMakeFiles/SPO.dir/mnt/c/study/GRAD/249A/proj/EECS249-Smart-Pill-Organizer/pico-sdk/src/common/pico_time/time.c.obj
 .data          0x0000000020000314       0x48 CMakeFiles/SPO.dir/mnt/c/study/GRAD/249A/proj/EECS249-Smart-Pill-Organizer/pico-sdk/src/rp2_common/hardware_irq/irq_handler_chain.S.obj
                0x0000000020000314                irq_handler_chain_slots
                0x0000000020000344                irq_handler_chain_first_slot
                0x000000002000034e                irq_handler_chain_remove_tail
 *fill*         0x000000002000035c        0x4 
 .data.aeabi_bits_funcs
                0x0000000020000360       0x10 CMakeFiles/SPO.dir/mnt/c/study/GRAD/249A/proj/EECS249-Smart-Pill-Organizer/pico-sdk/src/rp2_common/pico_bit_ops/bit_ops_aeabi.S.obj
                0x0000000020000360                aeabi_bits_funcs
                0x0000000020000370                aeabi_bits_funcs_end
 .data.aeabi_mem_funcs
                0x0000000020000370       0x10 CMakeFiles/SPO.dir/mnt/c/study/GRAD/249A/proj/EECS249-Smart-Pill-Organizer/pico-sdk/src/rp2_common/pico_mem_ops/mem_ops_aeabi.S.obj
                0x0000000020000370                aeabi_mem_funcs
                0x0000000020000380                aeabi_mem_funcs_end
 .data.stdio_uart
                0x0000000020000380       0x14 CMakeFiles/SPO.dir/mnt/c/study/GRAD/249A/proj/EECS249-Smart-Pill-Organizer/pico-sdk/src/rp2_common/pico_stdio_uart/stdio_uart.c.obj
                0x0000000020000380                stdio_uart
 *fill*         0x0000000020000394        0x4 
 .data          0x0000000020000398      0x430 /usr/lib/gcc/arm-none-eabi/6.3.1/../../../arm-none-eabi/lib/thumb/v6-m/libc.a(lib_a-impure.o)
                0x0000000020000398                _impure_ptr
 .data          0x00000000200007c8      0x410 /usr/lib/gcc/arm-none-eabi/6.3.1/../../../arm-none-eabi/lib/thumb/v6-m/libc.a(lib_a-mallocr.o)
                0x00000000200007c8                __malloc_av_
                0x0000000020000bd0                __malloc_sbrk_base
                0x0000000020000bd4                __malloc_trim_threshold
 .data          0x0000000020000bd8        0x8 /usr/lib/gcc/arm-none-eabi/6.3.1/../../../arm-none-eabi/lib/thumb/v6-m/libc.a(lib_a-tzvars.o)
                0x0000000020000bd8                _tzname
 .data          0x0000000020000be0        0x4 /usr/lib/gcc/arm-none-eabi/6.3.1/../../../arm-none-eabi/lib/thumb/v6-m/libc.a(lib_a-ctype_.o)
                0x0000000020000be0                __ctype_ptr__
 .data          0x0000000020000be4       0x40 /usr/lib/gcc/arm-none-eabi/6.3.1/../../../arm-none-eabi/lib/thumb/v6-m/libc.a(lib_a-gettzinfo.o)
 .data          0x0000000020000c24       0x7c /usr/lib/gcc/arm-none-eabi/6.3.1/../../../arm-none-eabi/lib/thumb/v6-m/libc.a(lib_a-locale.o)
                0x0000000020000c44                __mb_cur_max
 .data          0x0000000020000ca0        0x4 /usr/lib/gcc/arm-none-eabi/6.3.1/../../../arm-none-eabi/lib/thumb/v6-m/libc.a(lib_a-environ.o)
                0x0000000020000ca0                environ
 .data          0x0000000020000ca4        0x4 /usr/lib/gcc/arm-none-eabi/6.3.1/../../../arm-none-eabi/lib/thumb/v6-m/libc.a(lib_a-mbtowc_r.o)
                0x0000000020000ca4                __mbtowc
 .data          0x0000000020000ca8        0x4 /usr/lib/gcc/arm-none-eabi/6.3.1/../../../arm-none-eabi/lib/thumb/v6-m/libc.a(lib_a-wctomb_r.o)
                0x0000000020000ca8                __wctomb
                0x0000000020000cac                . = ALIGN (0x4)
 *(.after_data.*)
                0x0000000020000cac                . = ALIGN (0x4)
                0x0000000020000cac                PROVIDE (__mutex_array_start, .)
 *(SORT(.mutex_array.*))
 *(.mutex_array)
 .mutex_array   0x0000000020000cac        0x8 CMakeFiles/SPO.dir/mnt/c/study/GRAD/249A/proj/EECS249-Smart-Pill-Organizer/pico-sdk/src/rp2_common/pico_stdio/stdio.c.obj
                0x0000000020000cb4                PROVIDE (__mutex_array_end, .)
                0x0000000020000cb4                . = ALIGN (0x4)
                0x0000000020000cb4                PROVIDE (__preinit_array_start, .)
 *(SORT(.preinit_array.*))
 .preinit_array.00001
                0x0000000020000cb4        0x4 CMakeFiles/SPO.dir/mnt/c/study/GRAD/249A/proj/EECS249-Smart-Pill-Organizer/pico-sdk/src/rp2_common/pico_mem_ops/mem_ops_aeabi.S.obj
 .preinit_array.00010
                0x0000000020000cb8        0x4 CMakeFiles/SPO.dir/mnt/c/study/GRAD/249A/proj/EECS249-Smart-Pill-Organizer/pico-sdk/src/rp2_common/pico_bit_ops/bit_ops_aeabi.S.obj
 .preinit_array.00020
                0x0000000020000cbc        0x4 CMakeFiles/SPO.dir/mnt/c/study/GRAD/249A/proj/EECS249-Smart-Pill-Organizer/pico-sdk/src/rp2_common/pico_double/double_aeabi.S.obj
 .preinit_array.00020
                0x0000000020000cc0        0x4 CMakeFiles/SPO.dir/mnt/c/study/GRAD/249A/proj/EECS249-Smart-Pill-Organizer/pico-sdk/src/rp2_common/pico_float/float_aeabi.S.obj
 *(.preinit_array)
                0x0000000020000cc4                PROVIDE (__preinit_array_end, .)
                0x0000000020000cc4                . = ALIGN (0x4)
                0x0000000020000cc4                PROVIDE (__init_array_start, .)
 *(SORT(.init_array.*))
 *(.init_array)
 .init_array    0x0000000020000cc4        0x4 /usr/lib/gcc/arm-none-eabi/6.3.1/thumb/v6-m/crtbegin.o
                0x0000000020000cc8                PROVIDE (__init_array_end, .)
                0x0000000020000cc8                . = ALIGN (0x4)
                0x0000000020000cc8                PROVIDE (__fini_array_start, .)
 *(SORT(.fini_array.*))
 *(.fini_array)
                0x0000000020000cc8                PROVIDE (__fini_array_end, .)
 *(.jcr)
 .jcr           0x0000000020000cc8        0x0 /usr/lib/gcc/arm-none-eabi/6.3.1/thumb/v6-m/crtbegin.o
                0x0000000020000cc8                . = ALIGN (0x4)
                0x0000000020000cc8                __data_end__ = .

.tm_clone_table
                0x0000000020000cc8        0x0 load address 0x000000001001194c
 .tm_clone_table
                0x0000000020000cc8        0x0 /usr/lib/gcc/arm-none-eabi/6.3.1/thumb/v6-m/crtbegin.o
 .tm_clone_table
                0x0000000020000cc8        0x0 /usr/lib/gcc/arm-none-eabi/6.3.1/thumb/v6-m/crtend.o

.igot.plt       0x0000000020000cc8        0x0 load address 0x000000001001194c
 .igot.plt      0x0000000020000cc8        0x0 /usr/lib/gcc/arm-none-eabi/6.3.1/thumb/v6-m/crtbegin.o

.uninitialized_data
                0x0000000020000cc8        0x0 load address 0x000000001001194c
                0x0000000020000cc8                . = ALIGN (0x4)
 *(.uninitialized_data*)

.scratch_x      0x0000000020040000        0x0 load address 0x000000001001194c
                0x0000000020040000                __scratch_x_start__ = .
 *(.scratch_x.*)
                0x0000000020040000                . = ALIGN (0x4)
                0x0000000020040000                __scratch_x_end__ = .
                0x000000001001194c                __scratch_x_source__ = LOADADDR (.scratch_x)

.scratch_y      0x0000000020041000        0x0 load address 0x000000001001194c
                0x0000000020041000                __scratch_y_start__ = .
 *(.scratch_y.*)
                0x0000000020041000                . = ALIGN (0x4)
                0x0000000020041000                __scratch_y_end__ = .
                0x000000001001194c                __scratch_y_source__ = LOADADDR (.scratch_y)

.bss            0x0000000020000cc8      0x4bc
                0x0000000020000cc8                . = ALIGN (0x4)
                0x0000000020000cc8                __bss_start__ = .
 *(SORT(.bss*))
 .bss._lf_global_physical_clock_offset
                0x0000000020000cc8        0x8 CMakeFiles/SPO.dir/Main.c.obj
                0x0000000020000cc8                _lf_global_physical_clock_offset
 .bss._lf_global_test_physical_clock_offset
                0x0000000020000cd0        0x8 CMakeFiles/SPO.dir/Main.c.obj
                0x0000000020000cd0                _lf_global_test_physical_clock_offset
 .bss._lf_last_reported_physical_time_ns
                0x0000000020000cd8        0x8 CMakeFiles/SPO.dir/Main.c.obj
                0x0000000020000cd8                _lf_last_reported_physical_time_ns
 .bss.current_tag
                0x0000000020000ce0       0x10 CMakeFiles/SPO.dir/Main.c.obj
                0x0000000020000ce0                current_tag
 .bss.default_alarm_pool_entries
                0x0000000020000cf0      0x100 CMakeFiles/SPO.dir/mnt/c/study/GRAD/249A/proj/EECS249-Smart-Pill-Organizer/pico-sdk/src/common/pico_time/time.c.obj
 .bss           0x0000000020000df0       0x1c /usr/lib/gcc/arm-none-eabi/6.3.1/thumb/v6-m/crtbegin.o
 .bss           0x0000000020000e0c       0x34 /usr/lib/gcc/arm-none-eabi/6.3.1/../../../arm-none-eabi/lib/thumb/v6-m/libc.a(lib_a-mallocr.o)
                0x0000000020000e0c                __malloc_top_pad
                0x0000000020000e10                __malloc_current_mallinfo
                0x0000000020000e38                __malloc_max_sbrked_mem
                0x0000000020000e3c                __malloc_max_total_mem
 .bss           0x0000000020000e40       0x1b /usr/lib/gcc/arm-none-eabi/6.3.1/../../../arm-none-eabi/lib/thumb/v6-m/libc.a(lib_a-tzset_r.o)
 *fill*         0x0000000020000e5b        0x1 
 .bss           0x0000000020000e5c        0x8 /usr/lib/gcc/arm-none-eabi/6.3.1/../../../arm-none-eabi/lib/thumb/v6-m/libc.a(lib_a-tzvars.o)
                0x0000000020000e5c                _timezone
                0x0000000020000e60                _daylight
 .bss           0x0000000020000e64        0x4 /usr/lib/gcc/arm-none-eabi/6.3.1/../../../arm-none-eabi/lib/thumb/v6-m/libc.a(lib_a-environ.o)
 .bss._lf_count_payload_allocations
                0x0000000020000e68        0x4 CMakeFiles/SPO.dir/Main.c.obj
 .bss._lf_count_token_allocations
                0x0000000020000e6c        0x4 CMakeFiles/SPO.dir/Main.c.obj
 .bss._lf_is_present_fields
                0x0000000020000e70        0x4 CMakeFiles/SPO.dir/Main.c.obj
                0x0000000020000e70                _lf_is_present_fields
 .bss._lf_is_present_fields_abbreviated
                0x0000000020000e74        0x4 CMakeFiles/SPO.dir/Main.c.obj
                0x0000000020000e74                _lf_is_present_fields_abbreviated
 .bss._lf_is_present_fields_abbreviated_size
                0x0000000020000e78        0x4 CMakeFiles/SPO.dir/Main.c.obj
                0x0000000020000e78                _lf_is_present_fields_abbreviated_size
 .bss._lf_is_present_fields_size
                0x0000000020000e7c        0x4 CMakeFiles/SPO.dir/Main.c.obj
                0x0000000020000e7c                _lf_is_present_fields_size
 .bss._lf_more_tokens_with_ref_count
                0x0000000020000e80        0x4 CMakeFiles/SPO.dir/Main.c.obj
                0x0000000020000e80                _lf_more_tokens_with_ref_count
 .bss._lf_number_of_threads
                0x0000000020000e84        0x4 CMakeFiles/SPO.dir/Main.c.obj
                0x0000000020000e84                _lf_number_of_threads
 .bss._lf_shutdown_reactions
                0x0000000020000e88        0x4 CMakeFiles/SPO.dir/Main.c.obj
                0x0000000020000e88                _lf_shutdown_reactions
 .bss._lf_shutdown_reactions_size
                0x0000000020000e8c        0x4 CMakeFiles/SPO.dir/Main.c.obj
                0x0000000020000e8c                _lf_shutdown_reactions_size
 .bss._lf_token_recycling_bin
                0x0000000020000e90        0x4 CMakeFiles/SPO.dir/Main.c.obj
                0x0000000020000e90                _lf_token_recycling_bin
 .bss._lf_token_recycling_bin_size
                0x0000000020000e94        0x4 CMakeFiles/SPO.dir/Main.c.obj
                0x0000000020000e94                _lf_token_recycling_bin_size
 .bss._lf_tokens_with_ref_count
                0x0000000020000e98        0x4 CMakeFiles/SPO.dir/Main.c.obj
                0x0000000020000e98                _lf_tokens_with_ref_count
 .bss._lf_tokens_with_ref_count_size
                0x0000000020000e9c        0x4 CMakeFiles/SPO.dir/Main.c.obj
                0x0000000020000e9c                _lf_tokens_with_ref_count_size
 .bss.alarm_callbacks
                0x0000000020000ea0       0x10 CMakeFiles/SPO.dir/mnt/c/study/GRAD/249A/proj/EECS249-Smart-Pill-Organizer/pico-sdk/src/rp2_common/hardware_timer/timer.c.obj
 .bss.configured_freq
                0x0000000020000eb0       0x28 CMakeFiles/SPO.dir/mnt/c/study/GRAD/249A/proj/EECS249-Smart-Pill-Organizer/pico-sdk/src/rp2_common/hardware_clocks/clocks.c.obj
 .bss.default_alarm_pool_entry_ids_high
                0x0000000020000ed8       0x10 CMakeFiles/SPO.dir/mnt/c/study/GRAD/249A/proj/EECS249-Smart-Pill-Organizer/pico-sdk/src/common/pico_time/time.c.obj
 .bss.default_alarm_pool_heap_nodes
                0x0000000020000ee8       0x30 CMakeFiles/SPO.dir/mnt/c/study/GRAD/249A/proj/EECS249-Smart-Pill-Organizer/pico-sdk/src/common/pico_time/time.c.obj
 .bss.default_argc
                0x0000000020000f18        0x4 CMakeFiles/SPO.dir/Main.c.obj
                0x0000000020000f18                default_argc
 .bss.default_argv
                0x0000000020000f1c        0x4 CMakeFiles/SPO.dir/Main.c.obj
                0x0000000020000f1c                default_argv
 .bss.drivers   0x0000000020000f20        0x4 CMakeFiles/SPO.dir/mnt/c/study/GRAD/249A/proj/EECS249-Smart-Pill-Organizer/pico-sdk/src/rp2_common/pico_stdio/stdio.c.obj
 .bss.filter    0x0000000020000f24        0x4 CMakeFiles/SPO.dir/mnt/c/study/GRAD/249A/proj/EECS249-Smart-Pill-Organizer/pico-sdk/src/rp2_common/pico_stdio/stdio.c.obj
 .bss.heap_end.5767
                0x0000000020000f28        0x4 CMakeFiles/SPO.dir/mnt/c/study/GRAD/249A/proj/EECS249-Smart-Pill-Organizer/pico-sdk/src/rp2_common/pico_runtime/runtime.c.obj
 .bss.lazy_vsnprintf
                0x0000000020000f2c        0x4 CMakeFiles/SPO.dir/mnt/c/study/GRAD/249A/proj/EECS249-Smart-Pill-Organizer/pico-sdk/src/rp2_common/pico_printf/printf.c.obj
 .bss.pools     0x0000000020000f30       0x10 CMakeFiles/SPO.dir/mnt/c/study/GRAD/249A/proj/EECS249-Smart-Pill-Organizer/pico-sdk/src/common/pico_time/time.c.obj
 .bss.print_message_function
                0x0000000020000f40        0x4 CMakeFiles/SPO.dir/Main.c.obj
                0x0000000020000f40                print_message_function
 .bss.sf_clz_func
                0x0000000020000f44        0x4 CMakeFiles/SPO.dir/mnt/c/study/GRAD/249A/proj/EECS249-Smart-Pill-Organizer/pico-sdk/src/rp2_common/pico_double/double_init_rom.c.obj
                0x0000000020000f44                sf_clz_func
 .bss.sleep_notifier
                0x0000000020000f48        0x4 CMakeFiles/SPO.dir/mnt/c/study/GRAD/249A/proj/EECS249-Smart-Pill-Organizer/pico-sdk/src/common/pico_time/time.c.obj
 .bss.target_hi
                0x0000000020000f4c       0x10 CMakeFiles/SPO.dir/mnt/c/study/GRAD/249A/proj/EECS249-Smart-Pill-Organizer/pico-sdk/src/rp2_common/hardware_timer/timer.c.obj
 .bss.uart_instance
                0x0000000020000f5c        0x4 CMakeFiles/SPO.dir/mnt/c/study/GRAD/249A/proj/EECS249-Smart-Pill-Organizer/pico-sdk/src/rp2_common/pico_stdio_uart/stdio_uart.c.obj
 .bss._lf_execution_started
                0x0000000020000f60        0x1 CMakeFiles/SPO.dir/Main.c.obj
                0x0000000020000f60                _lf_execution_started
 .bss.claimed   0x0000000020000f61        0x1 CMakeFiles/SPO.dir/mnt/c/study/GRAD/249A/proj/EECS249-Smart-Pill-Organizer/pico-sdk/src/rp2_common/hardware_timer/timer.c.obj
 .bss.fast      0x0000000020000f62        0x1 CMakeFiles/SPO.dir/Main.c.obj
                0x0000000020000f62                fast
 .bss.irq_hander_chain_free_slot_head
                0x0000000020000f63        0x1 CMakeFiles/SPO.dir/mnt/c/study/GRAD/249A/proj/EECS249-Smart-Pill-Organizer/pico-sdk/src/rp2_common/hardware_irq/irq.c.obj
 .bss.keepalive_specified
                0x0000000020000f64        0x1 CMakeFiles/SPO.dir/Main.c.obj
                0x0000000020000f64                keepalive_specified
 .bss.timer_callbacks_pending
                0x0000000020000f65        0x1 CMakeFiles/SPO.dir/mnt/c/study/GRAD/249A/proj/EECS249-Smart-Pill-Organizer/pico-sdk/src/rp2_common/hardware_timer/timer.c.obj
 *(COMMON)
 *fill*         0x0000000020000f66        0x2 
 COMMON         0x0000000020000f68       0x14 CMakeFiles/SPO.dir/Main.c.obj
                0x0000000020000f68                recycle_q
                0x0000000020000f6c                next_q
                0x0000000020000f70                reaction_q
                0x0000000020000f74                _lf_startup_reactions
                0x0000000020000f78                event_q
 COMMON         0x0000000020000f7c        0x4 CMakeFiles/SPO.dir/mnt/c/study/GRAD/249A/proj/EECS249-Smart-Pill-Organizer/pico-sdk/src/rp2_common/hardware_uart/uart.c.obj
                0x0000000020000f7c                uart_char_to_line_feed
 COMMON         0x0000000020000f80      0x100 CMakeFiles/SPO.dir/mnt/c/study/GRAD/249A/proj/EECS249-Smart-Pill-Organizer/pico-sdk/src/rp2_common/pico_double/double_init_rom.c.obj
                0x0000000020000f80                sd_table
 COMMON         0x0000000020001080      0x100 CMakeFiles/SPO.dir/mnt/c/study/GRAD/249A/proj/EECS249-Smart-Pill-Organizer/pico-sdk/src/rp2_common/pico_float/float_init_rom.c.obj
                0x0000000020001080                sf_table
 COMMON         0x0000000020001180        0x4 /usr/lib/gcc/arm-none-eabi/6.3.1/../../../arm-none-eabi/lib/thumb/v6-m/libc.a(lib_a-reent.o)
                0x0000000020001180                errno
                0x0000000020001184                . = ALIGN (0x4)
                0x0000000020001184                __bss_end__ = .

.heap           0x0000000020001184      0x800
                0x0000000020001184                __end__ = .
                0x0000000020001184                end = __end__
 *(.heap*)
 .heap          0x0000000020001184      0x800 CMakeFiles/SPO.dir/mnt/c/study/GRAD/249A/proj/EECS249-Smart-Pill-Organizer/pico-sdk/src/rp2_common/pico_standard_link/crt0.S.obj
                0x0000000020001984                __HeapLimit = .

.stack1_dummy   0x0000000020040000        0x0
 *(.stack1*)

.stack_dummy    0x0000000020041000      0x800
 *(.stack*)
 .stack         0x0000000020041000      0x800 CMakeFiles/SPO.dir/mnt/c/study/GRAD/249A/proj/EECS249-Smart-Pill-Organizer/pico-sdk/src/rp2_common/pico_standard_link/crt0.S.obj

.flash_end      0x000000001001194c        0x0
                0x000000001001194c                __flash_binary_end = .
                0x0000000020040000                __StackLimit = (ORIGIN (RAM) + LENGTH (RAM))
                0x0000000020041000                __StackOneTop = (ORIGIN (SCRATCH_X) + LENGTH (SCRATCH_X))
                0x0000000020042000                __StackTop = (ORIGIN (SCRATCH_Y) + LENGTH (SCRATCH_Y))
                0x0000000020041000                __StackOneBottom = (__StackOneTop - SIZEOF (.stack1_dummy))
                0x0000000020041800                __StackBottom = (__StackTop - SIZEOF (.stack_dummy))
                0x0000000020042000                PROVIDE (__stack, __StackTop)
                0x0000000000000001                ASSERT ((__StackLimit >= __HeapLimit), region RAM overflowed)
                0x0000000000000001                ASSERT (((__binary_info_header_end - __logical_binary_start) <= 0x100), Binary info must be in first 256 bytes of the binary)
LOAD CMakeFiles/SPO.dir/Main.c.obj
LOAD CMakeFiles/SPO.dir/core/platform/lf_pico_support.c.obj
LOAD CMakeFiles/SPO.dir/ctarget.c.obj
LOAD CMakeFiles/SPO.dir/mnt/c/study/GRAD/249A/proj/EECS249-Smart-Pill-Organizer/pico-sdk/src/rp2_common/pico_stdlib/stdlib.c.obj
LOAD CMakeFiles/SPO.dir/mnt/c/study/GRAD/249A/proj/EECS249-Smart-Pill-Organizer/pico-sdk/src/rp2_common/hardware_gpio/gpio.c.obj
LOAD CMakeFiles/SPO.dir/mnt/c/study/GRAD/249A/proj/EECS249-Smart-Pill-Organizer/pico-sdk/src/rp2_common/hardware_claim/claim.c.obj
LOAD CMakeFiles/SPO.dir/mnt/c/study/GRAD/249A/proj/EECS249-Smart-Pill-Organizer/pico-sdk/src/rp2_common/pico_platform/platform.c.obj
LOAD CMakeFiles/SPO.dir/mnt/c/study/GRAD/249A/proj/EECS249-Smart-Pill-Organizer/pico-sdk/src/rp2_common/hardware_sync/sync.c.obj
LOAD CMakeFiles/SPO.dir/mnt/c/study/GRAD/249A/proj/EECS249-Smart-Pill-Organizer/pico-sdk/src/rp2_common/hardware_uart/uart.c.obj
LOAD CMakeFiles/SPO.dir/mnt/c/study/GRAD/249A/proj/EECS249-Smart-Pill-Organizer/pico-sdk/src/rp2_common/hardware_divider/divider.S.obj
LOAD CMakeFiles/SPO.dir/mnt/c/study/GRAD/249A/proj/EECS249-Smart-Pill-Organizer/pico-sdk/src/common/pico_time/time.c.obj
LOAD CMakeFiles/SPO.dir/mnt/c/study/GRAD/249A/proj/EECS249-Smart-Pill-Organizer/pico-sdk/src/common/pico_time/timeout_helper.c.obj
LOAD CMakeFiles/SPO.dir/mnt/c/study/GRAD/249A/proj/EECS249-Smart-Pill-Organizer/pico-sdk/src/rp2_common/hardware_timer/timer.c.obj
LOAD CMakeFiles/SPO.dir/mnt/c/study/GRAD/249A/proj/EECS249-Smart-Pill-Organizer/pico-sdk/src/common/pico_sync/sem.c.obj
LOAD CMakeFiles/SPO.dir/mnt/c/study/GRAD/249A/proj/EECS249-Smart-Pill-Organizer/pico-sdk/src/common/pico_sync/lock_core.c.obj
LOAD CMakeFiles/SPO.dir/mnt/c/study/GRAD/249A/proj/EECS249-Smart-Pill-Organizer/pico-sdk/src/common/pico_sync/mutex.c.obj
LOAD CMakeFiles/SPO.dir/mnt/c/study/GRAD/249A/proj/EECS249-Smart-Pill-Organizer/pico-sdk/src/common/pico_sync/critical_section.c.obj
LOAD CMakeFiles/SPO.dir/mnt/c/study/GRAD/249A/proj/EECS249-Smart-Pill-Organizer/pico-sdk/src/common/pico_util/datetime.c.obj
LOAD CMakeFiles/SPO.dir/mnt/c/study/GRAD/249A/proj/EECS249-Smart-Pill-Organizer/pico-sdk/src/common/pico_util/pheap.c.obj
LOAD CMakeFiles/SPO.dir/mnt/c/study/GRAD/249A/proj/EECS249-Smart-Pill-Organizer/pico-sdk/src/common/pico_util/queue.c.obj
LOAD CMakeFiles/SPO.dir/mnt/c/study/GRAD/249A/proj/EECS249-Smart-Pill-Organizer/pico-sdk/src/rp2_common/pico_runtime/runtime.c.obj
LOAD CMakeFiles/SPO.dir/mnt/c/study/GRAD/249A/proj/EECS249-Smart-Pill-Organizer/pico-sdk/src/rp2_common/hardware_clocks/clocks.c.obj
LOAD CMakeFiles/SPO.dir/mnt/c/study/GRAD/249A/proj/EECS249-Smart-Pill-Organizer/pico-sdk/src/rp2_common/hardware_irq/irq.c.obj
LOAD CMakeFiles/SPO.dir/mnt/c/study/GRAD/249A/proj/EECS249-Smart-Pill-Organizer/pico-sdk/src/rp2_common/hardware_irq/irq_handler_chain.S.obj
LOAD CMakeFiles/SPO.dir/mnt/c/study/GRAD/249A/proj/EECS249-Smart-Pill-Organizer/pico-sdk/src/rp2_common/hardware_pll/pll.c.obj
LOAD CMakeFiles/SPO.dir/mnt/c/study/GRAD/249A/proj/EECS249-Smart-Pill-Organizer/pico-sdk/src/rp2_common/hardware_vreg/vreg.c.obj
LOAD CMakeFiles/SPO.dir/mnt/c/study/GRAD/249A/proj/EECS249-Smart-Pill-Organizer/pico-sdk/src/rp2_common/hardware_watchdog/watchdog.c.obj
LOAD CMakeFiles/SPO.dir/mnt/c/study/GRAD/249A/proj/EECS249-Smart-Pill-Organizer/pico-sdk/src/rp2_common/hardware_xosc/xosc.c.obj
LOAD CMakeFiles/SPO.dir/mnt/c/study/GRAD/249A/proj/EECS249-Smart-Pill-Organizer/pico-sdk/src/rp2_common/pico_printf/printf.c.obj
LOAD CMakeFiles/SPO.dir/mnt/c/study/GRAD/249A/proj/EECS249-Smart-Pill-Organizer/pico-sdk/src/rp2_common/pico_bit_ops/bit_ops_aeabi.S.obj
LOAD CMakeFiles/SPO.dir/mnt/c/study/GRAD/249A/proj/EECS249-Smart-Pill-Organizer/pico-sdk/src/rp2_common/pico_bootrom/bootrom.c.obj
LOAD CMakeFiles/SPO.dir/mnt/c/study/GRAD/249A/proj/EECS249-Smart-Pill-Organizer/pico-sdk/src/rp2_common/pico_divider/divider.S.obj
LOAD CMakeFiles/SPO.dir/mnt/c/study/GRAD/249A/proj/EECS249-Smart-Pill-Organizer/pico-sdk/src/rp2_common/pico_double/double_aeabi.S.obj
LOAD CMakeFiles/SPO.dir/mnt/c/study/GRAD/249A/proj/EECS249-Smart-Pill-Organizer/pico-sdk/src/rp2_common/pico_double/double_init_rom.c.obj
LOAD CMakeFiles/SPO.dir/mnt/c/study/GRAD/249A/proj/EECS249-Smart-Pill-Organizer/pico-sdk/src/rp2_common/pico_double/double_math.c.obj
LOAD CMakeFiles/SPO.dir/mnt/c/study/GRAD/249A/proj/EECS249-Smart-Pill-Organizer/pico-sdk/src/rp2_common/pico_double/double_v1_rom_shim.S.obj
LOAD CMakeFiles/SPO.dir/mnt/c/study/GRAD/249A/proj/EECS249-Smart-Pill-Organizer/pico-sdk/src/rp2_common/pico_int64_ops/pico_int64_ops_aeabi.S.obj
LOAD CMakeFiles/SPO.dir/mnt/c/study/GRAD/249A/proj/EECS249-Smart-Pill-Organizer/pico-sdk/src/rp2_common/pico_float/float_aeabi.S.obj
LOAD CMakeFiles/SPO.dir/mnt/c/study/GRAD/249A/proj/EECS249-Smart-Pill-Organizer/pico-sdk/src/rp2_common/pico_float/float_init_rom.c.obj
LOAD CMakeFiles/SPO.dir/mnt/c/study/GRAD/249A/proj/EECS249-Smart-Pill-Organizer/pico-sdk/src/rp2_common/pico_float/float_math.c.obj
LOAD CMakeFiles/SPO.dir/mnt/c/study/GRAD/249A/proj/EECS249-Smart-Pill-Organizer/pico-sdk/src/rp2_common/pico_float/float_v1_rom_shim.S.obj
LOAD CMakeFiles/SPO.dir/mnt/c/study/GRAD/249A/proj/EECS249-Smart-Pill-Organizer/pico-sdk/src/rp2_common/pico_malloc/pico_malloc.c.obj
LOAD CMakeFiles/SPO.dir/mnt/c/study/GRAD/249A/proj/EECS249-Smart-Pill-Organizer/pico-sdk/src/rp2_common/pico_mem_ops/mem_ops_aeabi.S.obj
LOAD CMakeFiles/SPO.dir/mnt/c/study/GRAD/249A/proj/EECS249-Smart-Pill-Organizer/pico-sdk/src/rp2_common/pico_standard_link/crt0.S.obj
LOAD CMakeFiles/SPO.dir/mnt/c/study/GRAD/249A/proj/EECS249-Smart-Pill-Organizer/pico-sdk/src/rp2_common/pico_standard_link/new_delete.cpp.obj
LOAD CMakeFiles/SPO.dir/mnt/c/study/GRAD/249A/proj/EECS249-Smart-Pill-Organizer/pico-sdk/src/rp2_common/pico_standard_link/binary_info.c.obj
LOAD CMakeFiles/SPO.dir/mnt/c/study/GRAD/249A/proj/EECS249-Smart-Pill-Organizer/pico-sdk/src/rp2_common/pico_stdio/stdio.c.obj
LOAD CMakeFiles/SPO.dir/mnt/c/study/GRAD/249A/proj/EECS249-Smart-Pill-Organizer/pico-sdk/src/rp2_common/pico_stdio_uart/stdio_uart.c.obj
LOAD /tmp/ccgx0QTb.o
LOAD /usr/lib/gcc/arm-none-eabi/6.3.1/../../../arm-none-eabi/lib/thumb/v6-m/libstdc++.a
LOAD /usr/lib/gcc/arm-none-eabi/6.3.1/../../../arm-none-eabi/lib/thumb/v6-m/libm.a
START GROUP
LOAD /usr/lib/gcc/arm-none-eabi/6.3.1/thumb/v6-m/libgcc.a
LOAD /usr/lib/gcc/arm-none-eabi/6.3.1/../../../arm-none-eabi/lib/thumb/v6-m/libc.a
END GROUP
START GROUP
LOAD /usr/lib/gcc/arm-none-eabi/6.3.1/thumb/v6-m/libgcc.a
LOAD /usr/lib/gcc/arm-none-eabi/6.3.1/../../../arm-none-eabi/lib/thumb/v6-m/libc.a
LOAD /usr/lib/gcc/arm-none-eabi/6.3.1/../../../arm-none-eabi/lib/thumb/v6-m/libnosys.a
END GROUP
LOAD /usr/lib/gcc/arm-none-eabi/6.3.1/thumb/v6-m/crtend.o
LOAD /usr/lib/gcc/arm-none-eabi/6.3.1/thumb/v6-m/crtn.o
OUTPUT(SPO.elf elf32-littlearm)

.ARM.attributes
                0x0000000000000000       0x28
 .ARM.attributes
                0x0000000000000000       0x1e /usr/lib/gcc/arm-none-eabi/6.3.1/thumb/v6-m/crti.o
 .ARM.attributes
                0x000000000000001e       0x2c /usr/lib/gcc/arm-none-eabi/6.3.1/thumb/v6-m/crtbegin.o
 .ARM.attributes
                0x000000000000004a       0x32 CMakeFiles/SPO.dir/Main.c.obj
 .ARM.attributes
                0x000000000000007c       0x32 CMakeFiles/SPO.dir/core/platform/lf_pico_support.c.obj
 .ARM.attributes
                0x00000000000000ae       0x32 CMakeFiles/SPO.dir/mnt/c/study/GRAD/249A/proj/EECS249-Smart-Pill-Organizer/pico-sdk/src/rp2_common/hardware_gpio/gpio.c.obj
 .ARM.attributes
                0x00000000000000e0       0x32 CMakeFiles/SPO.dir/mnt/c/study/GRAD/249A/proj/EECS249-Smart-Pill-Organizer/pico-sdk/src/rp2_common/hardware_claim/claim.c.obj
 .ARM.attributes
                0x0000000000000112       0x32 CMakeFiles/SPO.dir/mnt/c/study/GRAD/249A/proj/EECS249-Smart-Pill-Organizer/pico-sdk/src/rp2_common/pico_platform/platform.c.obj
 .ARM.attributes
                0x0000000000000144       0x32 CMakeFiles/SPO.dir/mnt/c/study/GRAD/249A/proj/EECS249-Smart-Pill-Organizer/pico-sdk/src/rp2_common/hardware_sync/sync.c.obj
 .ARM.attributes
                0x0000000000000176       0x32 CMakeFiles/SPO.dir/mnt/c/study/GRAD/249A/proj/EECS249-Smart-Pill-Organizer/pico-sdk/src/rp2_common/hardware_uart/uart.c.obj
 .ARM.attributes
                0x00000000000001a8       0x32 CMakeFiles/SPO.dir/mnt/c/study/GRAD/249A/proj/EECS249-Smart-Pill-Organizer/pico-sdk/src/common/pico_time/time.c.obj
 .ARM.attributes
                0x00000000000001da       0x32 CMakeFiles/SPO.dir/mnt/c/study/GRAD/249A/proj/EECS249-Smart-Pill-Organizer/pico-sdk/src/rp2_common/hardware_timer/timer.c.obj
 .ARM.attributes
                0x000000000000020c       0x32 CMakeFiles/SPO.dir/mnt/c/study/GRAD/249A/proj/EECS249-Smart-Pill-Organizer/pico-sdk/src/common/pico_sync/lock_core.c.obj
 .ARM.attributes
                0x000000000000023e       0x32 CMakeFiles/SPO.dir/mnt/c/study/GRAD/249A/proj/EECS249-Smart-Pill-Organizer/pico-sdk/src/common/pico_sync/mutex.c.obj
 .ARM.attributes
                0x0000000000000270       0x32 CMakeFiles/SPO.dir/mnt/c/study/GRAD/249A/proj/EECS249-Smart-Pill-Organizer/pico-sdk/src/common/pico_util/pheap.c.obj
 .ARM.attributes
                0x00000000000002a2       0x32 CMakeFiles/SPO.dir/mnt/c/study/GRAD/249A/proj/EECS249-Smart-Pill-Organizer/pico-sdk/src/rp2_common/pico_runtime/runtime.c.obj
 .ARM.attributes
                0x00000000000002d4       0x32 CMakeFiles/SPO.dir/mnt/c/study/GRAD/249A/proj/EECS249-Smart-Pill-Organizer/pico-sdk/src/rp2_common/hardware_clocks/clocks.c.obj
 .ARM.attributes
                0x0000000000000306       0x32 CMakeFiles/SPO.dir/mnt/c/study/GRAD/249A/proj/EECS249-Smart-Pill-Organizer/pico-sdk/src/rp2_common/hardware_irq/irq.c.obj
 .ARM.attributes
                0x0000000000000338       0x22 CMakeFiles/SPO.dir/mnt/c/study/GRAD/249A/proj/EECS249-Smart-Pill-Organizer/pico-sdk/src/rp2_common/hardware_irq/irq_handler_chain.S.obj
 .ARM.attributes
                0x000000000000035a       0x32 CMakeFiles/SPO.dir/mnt/c/study/GRAD/249A/proj/EECS249-Smart-Pill-Organizer/pico-sdk/src/rp2_common/hardware_pll/pll.c.obj
 .ARM.attributes
                0x000000000000038c       0x32 CMakeFiles/SPO.dir/mnt/c/study/GRAD/249A/proj/EECS249-Smart-Pill-Organizer/pico-sdk/src/rp2_common/hardware_watchdog/watchdog.c.obj
 .ARM.attributes
                0x00000000000003be       0x32 CMakeFiles/SPO.dir/mnt/c/study/GRAD/249A/proj/EECS249-Smart-Pill-Organizer/pico-sdk/src/rp2_common/hardware_xosc/xosc.c.obj
 .ARM.attributes
                0x00000000000003f0       0x32 CMakeFiles/SPO.dir/mnt/c/study/GRAD/249A/proj/EECS249-Smart-Pill-Organizer/pico-sdk/src/rp2_common/pico_printf/printf.c.obj
 .ARM.attributes
                0x0000000000000422       0x22 CMakeFiles/SPO.dir/mnt/c/study/GRAD/249A/proj/EECS249-Smart-Pill-Organizer/pico-sdk/src/rp2_common/pico_bit_ops/bit_ops_aeabi.S.obj
 .ARM.attributes
                0x0000000000000444       0x32 CMakeFiles/SPO.dir/mnt/c/study/GRAD/249A/proj/EECS249-Smart-Pill-Organizer/pico-sdk/src/rp2_common/pico_bootrom/bootrom.c.obj
 .ARM.attributes
                0x0000000000000476       0x22 CMakeFiles/SPO.dir/mnt/c/study/GRAD/249A/proj/EECS249-Smart-Pill-Organizer/pico-sdk/src/rp2_common/pico_divider/divider.S.obj
 .ARM.attributes
                0x0000000000000498       0x22 CMakeFiles/SPO.dir/mnt/c/study/GRAD/249A/proj/EECS249-Smart-Pill-Organizer/pico-sdk/src/rp2_common/pico_double/double_aeabi.S.obj
 .ARM.attributes
                0x00000000000004ba       0x32 CMakeFiles/SPO.dir/mnt/c/study/GRAD/249A/proj/EECS249-Smart-Pill-Organizer/pico-sdk/src/rp2_common/pico_double/double_init_rom.c.obj
 .ARM.attributes
                0x00000000000004ec       0x22 CMakeFiles/SPO.dir/mnt/c/study/GRAD/249A/proj/EECS249-Smart-Pill-Organizer/pico-sdk/src/rp2_common/pico_double/double_v1_rom_shim.S.obj
 .ARM.attributes
                0x000000000000050e       0x22 CMakeFiles/SPO.dir/mnt/c/study/GRAD/249A/proj/EECS249-Smart-Pill-Organizer/pico-sdk/src/rp2_common/pico_int64_ops/pico_int64_ops_aeabi.S.obj
 .ARM.attributes
                0x0000000000000530       0x22 CMakeFiles/SPO.dir/mnt/c/study/GRAD/249A/proj/EECS249-Smart-Pill-Organizer/pico-sdk/src/rp2_common/pico_float/float_aeabi.S.obj
 .ARM.attributes
                0x0000000000000552       0x32 CMakeFiles/SPO.dir/mnt/c/study/GRAD/249A/proj/EECS249-Smart-Pill-Organizer/pico-sdk/src/rp2_common/pico_float/float_init_rom.c.obj
 .ARM.attributes
                0x0000000000000584       0x22 CMakeFiles/SPO.dir/mnt/c/study/GRAD/249A/proj/EECS249-Smart-Pill-Organizer/pico-sdk/src/rp2_common/pico_float/float_v1_rom_shim.S.obj
 .ARM.attributes
                0x00000000000005a6       0x32 CMakeFiles/SPO.dir/mnt/c/study/GRAD/249A/proj/EECS249-Smart-Pill-Organizer/pico-sdk/src/rp2_common/pico_malloc/pico_malloc.c.obj
 .ARM.attributes
                0x00000000000005d8       0x22 CMakeFiles/SPO.dir/mnt/c/study/GRAD/249A/proj/EECS249-Smart-Pill-Organizer/pico-sdk/src/rp2_common/pico_mem_ops/mem_ops_aeabi.S.obj
 .ARM.attributes
                0x00000000000005fa       0x22 CMakeFiles/SPO.dir/mnt/c/study/GRAD/249A/proj/EECS249-Smart-Pill-Organizer/pico-sdk/src/rp2_common/pico_standard_link/crt0.S.obj
 .ARM.attributes
                0x000000000000061c       0x32 CMakeFiles/SPO.dir/mnt/c/study/GRAD/249A/proj/EECS249-Smart-Pill-Organizer/pico-sdk/src/rp2_common/pico_standard_link/binary_info.c.obj
 .ARM.attributes
                0x000000000000064e       0x32 CMakeFiles/SPO.dir/mnt/c/study/GRAD/249A/proj/EECS249-Smart-Pill-Organizer/pico-sdk/src/rp2_common/pico_stdio/stdio.c.obj
 .ARM.attributes
                0x0000000000000680       0x32 CMakeFiles/SPO.dir/mnt/c/study/GRAD/249A/proj/EECS249-Smart-Pill-Organizer/pico-sdk/src/rp2_common/pico_stdio_uart/stdio_uart.c.obj
 .ARM.attributes
                0x00000000000006b2       0x22 /tmp/ccgx0QTb.o
 .ARM.attributes
                0x00000000000006d4       0x1e /usr/lib/gcc/arm-none-eabi/6.3.1/thumb/v6-m/libgcc.a(_dvmd_tls.o)
 .ARM.attributes
                0x00000000000006f2       0x2c /usr/lib/gcc/arm-none-eabi/6.3.1/../../../arm-none-eabi/lib/thumb/v6-m/libc.a(lib_a-atexit.o)
 .ARM.attributes
                0x000000000000071e       0x2c /usr/lib/gcc/arm-none-eabi/6.3.1/../../../arm-none-eabi/lib/thumb/v6-m/libc.a(lib_a-atoi.o)
 .ARM.attributes
                0x000000000000074a       0x2c /usr/lib/gcc/arm-none-eabi/6.3.1/../../../arm-none-eabi/lib/thumb/v6-m/libc.a(lib_a-atoll.o)
 .ARM.attributes
                0x0000000000000776       0x2c /usr/lib/gcc/arm-none-eabi/6.3.1/../../../arm-none-eabi/lib/thumb/v6-m/libc.a(lib_a-calloc.o)
 .ARM.attributes
                0x00000000000007a2       0x2c /usr/lib/gcc/arm-none-eabi/6.3.1/../../../arm-none-eabi/lib/thumb/v6-m/libc.a(lib_a-callocr.o)
 .ARM.attributes
                0x00000000000007ce       0x2c /usr/lib/gcc/arm-none-eabi/6.3.1/../../../arm-none-eabi/lib/thumb/v6-m/libc.a(lib_a-ctime.o)
 .ARM.attributes
                0x00000000000007fa       0x2c /usr/lib/gcc/arm-none-eabi/6.3.1/../../../arm-none-eabi/lib/thumb/v6-m/libc.a(lib_a-impure.o)
 .ARM.attributes
                0x0000000000000826       0x2c /usr/lib/gcc/arm-none-eabi/6.3.1/../../../arm-none-eabi/lib/thumb/v6-m/libc.a(lib_a-lcltime.o)
 .ARM.attributes
                0x0000000000000852       0x2c /usr/lib/gcc/arm-none-eabi/6.3.1/../../../arm-none-eabi/lib/thumb/v6-m/libc.a(lib_a-lcltime_r.o)
 .ARM.attributes
                0x000000000000087e       0x2c /usr/lib/gcc/arm-none-eabi/6.3.1/../../../arm-none-eabi/lib/thumb/v6-m/libc.a(lib_a-malloc.o)
 .ARM.attributes
                0x00000000000008aa       0x2c /usr/lib/gcc/arm-none-eabi/6.3.1/../../../arm-none-eabi/lib/thumb/v6-m/libc.a(lib_a-mallocr.o)
 .ARM.attributes
                0x00000000000008d6       0x2c /usr/lib/gcc/arm-none-eabi/6.3.1/../../../arm-none-eabi/lib/thumb/v6-m/libc.a(lib_a-mlock.o)
 .ARM.attributes
                0x0000000000000902       0x2c /usr/lib/gcc/arm-none-eabi/6.3.1/../../../arm-none-eabi/lib/thumb/v6-m/libc.a(lib_a-month_lengths.o)
 .ARM.attributes
                0x000000000000092e       0x2c /usr/lib/gcc/arm-none-eabi/6.3.1/../../../arm-none-eabi/lib/thumb/v6-m/libc.a(lib_a-realloc.o)
 .ARM.attributes
                0x000000000000095a       0x2c /usr/lib/gcc/arm-none-eabi/6.3.1/../../../arm-none-eabi/lib/thumb/v6-m/libc.a(lib_a-reallocr.o)
 .ARM.attributes
                0x0000000000000986       0x2c /usr/lib/gcc/arm-none-eabi/6.3.1/../../../arm-none-eabi/lib/thumb/v6-m/libc.a(lib_a-sbrkr.o)
 .ARM.attributes
                0x00000000000009b2       0x2c /usr/lib/gcc/arm-none-eabi/6.3.1/../../../arm-none-eabi/lib/thumb/v6-m/libc.a(lib_a-signal.o)
 .ARM.attributes
                0x00000000000009de       0x2c /usr/lib/gcc/arm-none-eabi/6.3.1/../../../arm-none-eabi/lib/thumb/v6-m/libc.a(lib_a-signalr.o)
 .ARM.attributes
                0x0000000000000a0a       0x1b /usr/lib/gcc/arm-none-eabi/6.3.1/../../../arm-none-eabi/lib/thumb/v6-m/libc.a(lib_a-strcmp.o)
 .ARM.attributes
                0x0000000000000a25       0x2c /usr/lib/gcc/arm-none-eabi/6.3.1/../../../arm-none-eabi/lib/thumb/v6-m/libc.a(lib_a-strlen-stub.o)
 .ARM.attributes
                0x0000000000000a51       0x2c /usr/lib/gcc/arm-none-eabi/6.3.1/../../../arm-none-eabi/lib/thumb/v6-m/libc.a(lib_a-strncmp.o)
 .ARM.attributes
                0x0000000000000a7d       0x2c /usr/lib/gcc/arm-none-eabi/6.3.1/../../../arm-none-eabi/lib/thumb/v6-m/libc.a(lib_a-strtol.o)
 .ARM.attributes
                0x0000000000000aa9       0x2c /usr/lib/gcc/arm-none-eabi/6.3.1/../../../arm-none-eabi/lib/thumb/v6-m/libc.a(lib_a-strtoll.o)
 .ARM.attributes
                0x0000000000000ad5       0x2c /usr/lib/gcc/arm-none-eabi/6.3.1/../../../arm-none-eabi/lib/thumb/v6-m/libc.a(lib_a-strtoll_r.o)
 .ARM.attributes
                0x0000000000000b01       0x2c /usr/lib/gcc/arm-none-eabi/6.3.1/../../../arm-none-eabi/lib/thumb/v6-m/libc.a(lib_a-tzcalc_limits.o)
 .ARM.attributes
                0x0000000000000b2d       0x2c /usr/lib/gcc/arm-none-eabi/6.3.1/../../../arm-none-eabi/lib/thumb/v6-m/libc.a(lib_a-tzlock.o)
 .ARM.attributes
                0x0000000000000b59       0x2c /usr/lib/gcc/arm-none-eabi/6.3.1/../../../arm-none-eabi/lib/thumb/v6-m/libc.a(lib_a-tzset.o)
 .ARM.attributes
                0x0000000000000b85       0x2c /usr/lib/gcc/arm-none-eabi/6.3.1/../../../arm-none-eabi/lib/thumb/v6-m/libc.a(lib_a-tzset_r.o)
 .ARM.attributes
                0x0000000000000bb1       0x2c /usr/lib/gcc/arm-none-eabi/6.3.1/../../../arm-none-eabi/lib/thumb/v6-m/libc.a(lib_a-tzvars.o)
 .ARM.attributes
                0x0000000000000bdd       0x2c /usr/lib/gcc/arm-none-eabi/6.3.1/../../../arm-none-eabi/lib/thumb/v6-m/libc.a(lib_a-vfprintf.o)
 .ARM.attributes
                0x0000000000000c09       0x2c /usr/lib/gcc/arm-none-eabi/6.3.1/../../../arm-none-eabi/lib/thumb/v6-m/libc.a(lib_a-wbuf.o)
 .ARM.attributes
                0x0000000000000c35       0x2c /usr/lib/gcc/arm-none-eabi/6.3.1/../../../arm-none-eabi/lib/thumb/v6-m/libc.a(lib_a-wsetup.o)
 .ARM.attributes
                0x0000000000000c61       0x2c /usr/lib/gcc/arm-none-eabi/6.3.1/../../../arm-none-eabi/lib/thumb/v6-m/libc.a(lib_a-__atexit.o)
 .ARM.attributes
                0x0000000000000c8d       0x2c /usr/lib/gcc/arm-none-eabi/6.3.1/../../../arm-none-eabi/lib/thumb/v6-m/libc.a(lib_a-asctime.o)
 .ARM.attributes
                0x0000000000000cb9       0x2c /usr/lib/gcc/arm-none-eabi/6.3.1/../../../arm-none-eabi/lib/thumb/v6-m/libc.a(lib_a-asctime_r.o)
 .ARM.attributes
                0x0000000000000ce5       0x2c /usr/lib/gcc/arm-none-eabi/6.3.1/../../../arm-none-eabi/lib/thumb/v6-m/libc.a(lib_a-ctype_.o)
 .ARM.attributes
                0x0000000000000d11       0x2c /usr/lib/gcc/arm-none-eabi/6.3.1/../../../arm-none-eabi/lib/thumb/v6-m/libc.a(lib_a-dtoa.o)
 .ARM.attributes
                0x0000000000000d3d       0x2c /usr/lib/gcc/arm-none-eabi/6.3.1/../../../arm-none-eabi/lib/thumb/v6-m/libc.a(lib_a-fflush.o)
 .ARM.attributes
                0x0000000000000d69       0x2c /usr/lib/gcc/arm-none-eabi/6.3.1/../../../arm-none-eabi/lib/thumb/v6-m/libc.a(lib_a-findfp.o)
 .ARM.attributes
                0x0000000000000d95       0x2c /usr/lib/gcc/arm-none-eabi/6.3.1/../../../arm-none-eabi/lib/thumb/v6-m/libc.a(lib_a-freer.o)
 .ARM.attributes
                0x0000000000000dc1       0x2c /usr/lib/gcc/arm-none-eabi/6.3.1/../../../arm-none-eabi/lib/thumb/v6-m/libc.a(lib_a-fwalk.o)
 .ARM.attributes
                0x0000000000000ded       0x2c /usr/lib/gcc/arm-none-eabi/6.3.1/../../../arm-none-eabi/lib/thumb/v6-m/libc.a(lib_a-getenv_r.o)
 .ARM.attributes
                0x0000000000000e19       0x2c /usr/lib/gcc/arm-none-eabi/6.3.1/../../../arm-none-eabi/lib/thumb/v6-m/libc.a(lib_a-gettzinfo.o)
 .ARM.attributes
                0x0000000000000e45       0x2c /usr/lib/gcc/arm-none-eabi/6.3.1/../../../arm-none-eabi/lib/thumb/v6-m/libc.a(lib_a-gmtime_r.o)
 .ARM.attributes
                0x0000000000000e71       0x2c /usr/lib/gcc/arm-none-eabi/6.3.1/../../../arm-none-eabi/lib/thumb/v6-m/libc.a(lib_a-locale.o)
 .ARM.attributes
                0x0000000000000e9d       0x2c /usr/lib/gcc/arm-none-eabi/6.3.1/../../../arm-none-eabi/lib/thumb/v6-m/libc.a(lib_a-makebuf.o)
 .ARM.attributes
                0x0000000000000ec9       0x2c /usr/lib/gcc/arm-none-eabi/6.3.1/../../../arm-none-eabi/lib/thumb/v6-m/libc.a(lib_a-memchr-stub.o)
 .ARM.attributes
                0x0000000000000ef5       0x2c /usr/lib/gcc/arm-none-eabi/6.3.1/../../../arm-none-eabi/lib/thumb/v6-m/libc.a(lib_a-memmove.o)
 .ARM.attributes
                0x0000000000000f21       0x2c /usr/lib/gcc/arm-none-eabi/6.3.1/../../../arm-none-eabi/lib/thumb/v6-m/libc.a(lib_a-mprec.o)
 .ARM.attributes
                0x0000000000000f4d       0x2c /usr/lib/gcc/arm-none-eabi/6.3.1/../../../arm-none-eabi/lib/thumb/v6-m/libc.a(lib_a-reent.o)
 .ARM.attributes
                0x0000000000000f79       0x2c /usr/lib/gcc/arm-none-eabi/6.3.1/../../../arm-none-eabi/lib/thumb/v6-m/libc.a(lib_a-siprintf.o)
 .ARM.attributes
                0x0000000000000fa5       0x2c /usr/lib/gcc/arm-none-eabi/6.3.1/../../../arm-none-eabi/lib/thumb/v6-m/libc.a(lib_a-siscanf.o)
 .ARM.attributes
                0x0000000000000fd1       0x2c /usr/lib/gcc/arm-none-eabi/6.3.1/../../../arm-none-eabi/lib/thumb/v6-m/libc.a(lib_a-stdio.o)
 .ARM.attributes
                0x0000000000000ffd       0x2c /usr/lib/gcc/arm-none-eabi/6.3.1/../../../arm-none-eabi/lib/thumb/v6-m/libc.a(lib_a-strcpy.o)
 .ARM.attributes
                0x0000000000001029       0x2c /usr/lib/gcc/arm-none-eabi/6.3.1/../../../arm-none-eabi/lib/thumb/v6-m/libc.a(lib_a-strtoul.o)
 .ARM.attributes
                0x0000000000001055       0x2c /usr/lib/gcc/arm-none-eabi/6.3.1/../../../arm-none-eabi/lib/thumb/v6-m/libc.a(lib_a-svfiprintf.o)
 .ARM.attributes
                0x0000000000001081       0x2c /usr/lib/gcc/arm-none-eabi/6.3.1/../../../arm-none-eabi/lib/thumb/v6-m/libc.a(lib_a-svfiscanf.o)
 .ARM.attributes
                0x00000000000010ad       0x2c /usr/lib/gcc/arm-none-eabi/6.3.1/../../../arm-none-eabi/lib/thumb/v6-m/libc.a(lib_a-ungetc.o)
 .ARM.attributes
                0x00000000000010d9       0x2c /usr/lib/gcc/arm-none-eabi/6.3.1/../../../arm-none-eabi/lib/thumb/v6-m/libc.a(lib_a-vfiprintf.o)
 .ARM.attributes
                0x0000000000001105       0x2c /usr/lib/gcc/arm-none-eabi/6.3.1/../../../arm-none-eabi/lib/thumb/v6-m/libc.a(lib_a-writer.o)
 .ARM.attributes
                0x0000000000001131       0x2c /usr/lib/gcc/arm-none-eabi/6.3.1/../../../arm-none-eabi/lib/thumb/v6-m/libc.a(lib_a-closer.o)
 .ARM.attributes
                0x000000000000115d       0x2c /usr/lib/gcc/arm-none-eabi/6.3.1/../../../arm-none-eabi/lib/thumb/v6-m/libc.a(lib_a-environ.o)
 .ARM.attributes
                0x0000000000001189       0x2c /usr/lib/gcc/arm-none-eabi/6.3.1/../../../arm-none-eabi/lib/thumb/v6-m/libc.a(lib_a-envlock.o)
 .ARM.attributes
                0x00000000000011b5       0x2c /usr/lib/gcc/arm-none-eabi/6.3.1/../../../arm-none-eabi/lib/thumb/v6-m/libc.a(lib_a-fclose.o)
 .ARM.attributes
                0x00000000000011e1       0x2c /usr/lib/gcc/arm-none-eabi/6.3.1/../../../arm-none-eabi/lib/thumb/v6-m/libc.a(lib_a-fputwc.o)
 .ARM.attributes
                0x000000000000120d       0x2c /usr/lib/gcc/arm-none-eabi/6.3.1/../../../arm-none-eabi/lib/thumb/v6-m/libc.a(lib_a-fstatr.o)
 .ARM.attributes
                0x0000000000001239       0x2c /usr/lib/gcc/arm-none-eabi/6.3.1/../../../arm-none-eabi/lib/thumb/v6-m/libc.a(lib_a-fvwrite.o)
 .ARM.attributes
                0x0000000000001265       0x2c /usr/lib/gcc/arm-none-eabi/6.3.1/../../../arm-none-eabi/lib/thumb/v6-m/libc.a(lib_a-isattyr.o)
 .ARM.attributes
                0x0000000000001291       0x2c /usr/lib/gcc/arm-none-eabi/6.3.1/../../../arm-none-eabi/lib/thumb/v6-m/libc.a(lib_a-iswspace.o)
 .ARM.attributes
                0x00000000000012bd       0x2c /usr/lib/gcc/arm-none-eabi/6.3.1/../../../arm-none-eabi/lib/thumb/v6-m/libc.a(lib_a-lseekr.o)
 .ARM.attributes
                0x00000000000012e9       0x2c /usr/lib/gcc/arm-none-eabi/6.3.1/../../../arm-none-eabi/lib/thumb/v6-m/libc.a(lib_a-mbrtowc.o)
 .ARM.attributes
                0x0000000000001315       0x2c /usr/lib/gcc/arm-none-eabi/6.3.1/../../../arm-none-eabi/lib/thumb/v6-m/libc.a(lib_a-mbtowc_r.o)
 .ARM.attributes
                0x0000000000001341       0x2c /usr/lib/gcc/arm-none-eabi/6.3.1/../../../arm-none-eabi/lib/thumb/v6-m/libc.a(lib_a-readr.o)
 .ARM.attributes
                0x000000000000136d       0x2c /usr/lib/gcc/arm-none-eabi/6.3.1/../../../arm-none-eabi/lib/thumb/v6-m/libc.a(lib_a-sccl.o)
 .ARM.attributes
                0x0000000000001399       0x2c /usr/lib/gcc/arm-none-eabi/6.3.1/../../../arm-none-eabi/lib/thumb/v6-m/libc.a(lib_a-strtoull_r.o)
 .ARM.attributes
                0x00000000000013c5       0x2c /usr/lib/gcc/arm-none-eabi/6.3.1/../../../arm-none-eabi/lib/thumb/v6-m/libc.a(lib_a-wcrtomb.o)
 .ARM.attributes
                0x00000000000013f1       0x2c /usr/lib/gcc/arm-none-eabi/6.3.1/../../../arm-none-eabi/lib/thumb/v6-m/libc.a(lib_a-wctomb_r.o)
 .ARM.attributes
                0x000000000000141d       0x2c /usr/lib/gcc/arm-none-eabi/6.3.1/../../../arm-none-eabi/lib/thumb/v6-m/libnosys.a(close.o)
 .ARM.attributes
                0x0000000000001449       0x2c /usr/lib/gcc/arm-none-eabi/6.3.1/../../../arm-none-eabi/lib/thumb/v6-m/libnosys.a(fstat.o)
 .ARM.attributes
                0x0000000000001475       0x2c /usr/lib/gcc/arm-none-eabi/6.3.1/../../../arm-none-eabi/lib/thumb/v6-m/libnosys.a(getpid.o)
 .ARM.attributes
                0x00000000000014a1       0x2c /usr/lib/gcc/arm-none-eabi/6.3.1/../../../arm-none-eabi/lib/thumb/v6-m/libnosys.a(isatty.o)
 .ARM.attributes
                0x00000000000014cd       0x2c /usr/lib/gcc/arm-none-eabi/6.3.1/../../../arm-none-eabi/lib/thumb/v6-m/libnosys.a(kill.o)
 .ARM.attributes
                0x00000000000014f9       0x2c /usr/lib/gcc/arm-none-eabi/6.3.1/../../../arm-none-eabi/lib/thumb/v6-m/libnosys.a(lseek.o)
 .ARM.attributes
                0x0000000000001525       0x2c /usr/lib/gcc/arm-none-eabi/6.3.1/thumb/v6-m/crtend.o

.comment        0x0000000000000000       0x31
 .comment       0x0000000000000000       0x31 /usr/lib/gcc/arm-none-eabi/6.3.1/thumb/v6-m/crtbegin.o
                                         0x32 (size before relaxing)
 .comment       0x0000000000000031       0x32 CMakeFiles/SPO.dir/Main.c.obj
 .comment       0x0000000000000031       0x32 CMakeFiles/SPO.dir/core/platform/lf_pico_support.c.obj
 .comment       0x0000000000000031       0x32 CMakeFiles/SPO.dir/mnt/c/study/GRAD/249A/proj/EECS249-Smart-Pill-Organizer/pico-sdk/src/rp2_common/hardware_gpio/gpio.c.obj
 .comment       0x0000000000000031       0x32 CMakeFiles/SPO.dir/mnt/c/study/GRAD/249A/proj/EECS249-Smart-Pill-Organizer/pico-sdk/src/rp2_common/hardware_claim/claim.c.obj
 .comment       0x0000000000000031       0x32 CMakeFiles/SPO.dir/mnt/c/study/GRAD/249A/proj/EECS249-Smart-Pill-Organizer/pico-sdk/src/rp2_common/pico_platform/platform.c.obj
 .comment       0x0000000000000031       0x32 CMakeFiles/SPO.dir/mnt/c/study/GRAD/249A/proj/EECS249-Smart-Pill-Organizer/pico-sdk/src/rp2_common/hardware_sync/sync.c.obj
 .comment       0x0000000000000031       0x32 CMakeFiles/SPO.dir/mnt/c/study/GRAD/249A/proj/EECS249-Smart-Pill-Organizer/pico-sdk/src/rp2_common/hardware_uart/uart.c.obj
 .comment       0x0000000000000031       0x32 CMakeFiles/SPO.dir/mnt/c/study/GRAD/249A/proj/EECS249-Smart-Pill-Organizer/pico-sdk/src/common/pico_time/time.c.obj
 .comment       0x0000000000000031       0x32 CMakeFiles/SPO.dir/mnt/c/study/GRAD/249A/proj/EECS249-Smart-Pill-Organizer/pico-sdk/src/rp2_common/hardware_timer/timer.c.obj
 .comment       0x0000000000000031       0x32 CMakeFiles/SPO.dir/mnt/c/study/GRAD/249A/proj/EECS249-Smart-Pill-Organizer/pico-sdk/src/common/pico_sync/lock_core.c.obj
 .comment       0x0000000000000031       0x32 CMakeFiles/SPO.dir/mnt/c/study/GRAD/249A/proj/EECS249-Smart-Pill-Organizer/pico-sdk/src/common/pico_sync/mutex.c.obj
 .comment       0x0000000000000031       0x32 CMakeFiles/SPO.dir/mnt/c/study/GRAD/249A/proj/EECS249-Smart-Pill-Organizer/pico-sdk/src/common/pico_util/pheap.c.obj
 .comment       0x0000000000000031       0x32 CMakeFiles/SPO.dir/mnt/c/study/GRAD/249A/proj/EECS249-Smart-Pill-Organizer/pico-sdk/src/rp2_common/pico_runtime/runtime.c.obj
 .comment       0x0000000000000031       0x32 CMakeFiles/SPO.dir/mnt/c/study/GRAD/249A/proj/EECS249-Smart-Pill-Organizer/pico-sdk/src/rp2_common/hardware_clocks/clocks.c.obj
 .comment       0x0000000000000031       0x32 CMakeFiles/SPO.dir/mnt/c/study/GRAD/249A/proj/EECS249-Smart-Pill-Organizer/pico-sdk/src/rp2_common/hardware_irq/irq.c.obj
 .comment       0x0000000000000031       0x32 CMakeFiles/SPO.dir/mnt/c/study/GRAD/249A/proj/EECS249-Smart-Pill-Organizer/pico-sdk/src/rp2_common/hardware_pll/pll.c.obj
 .comment       0x0000000000000031       0x32 CMakeFiles/SPO.dir/mnt/c/study/GRAD/249A/proj/EECS249-Smart-Pill-Organizer/pico-sdk/src/rp2_common/hardware_watchdog/watchdog.c.obj
 .comment       0x0000000000000031       0x32 CMakeFiles/SPO.dir/mnt/c/study/GRAD/249A/proj/EECS249-Smart-Pill-Organizer/pico-sdk/src/rp2_common/hardware_xosc/xosc.c.obj
 .comment       0x0000000000000031       0x32 CMakeFiles/SPO.dir/mnt/c/study/GRAD/249A/proj/EECS249-Smart-Pill-Organizer/pico-sdk/src/rp2_common/pico_printf/printf.c.obj
 .comment       0x0000000000000031       0x32 CMakeFiles/SPO.dir/mnt/c/study/GRAD/249A/proj/EECS249-Smart-Pill-Organizer/pico-sdk/src/rp2_common/pico_bootrom/bootrom.c.obj
 .comment       0x0000000000000031       0x32 CMakeFiles/SPO.dir/mnt/c/study/GRAD/249A/proj/EECS249-Smart-Pill-Organizer/pico-sdk/src/rp2_common/pico_double/double_init_rom.c.obj
 .comment       0x0000000000000031       0x32 CMakeFiles/SPO.dir/mnt/c/study/GRAD/249A/proj/EECS249-Smart-Pill-Organizer/pico-sdk/src/rp2_common/pico_float/float_init_rom.c.obj
 .comment       0x0000000000000031       0x32 CMakeFiles/SPO.dir/mnt/c/study/GRAD/249A/proj/EECS249-Smart-Pill-Organizer/pico-sdk/src/rp2_common/pico_malloc/pico_malloc.c.obj
 .comment       0x0000000000000031       0x32 CMakeFiles/SPO.dir/mnt/c/study/GRAD/249A/proj/EECS249-Smart-Pill-Organizer/pico-sdk/src/rp2_common/pico_standard_link/binary_info.c.obj
 .comment       0x0000000000000031       0x32 CMakeFiles/SPO.dir/mnt/c/study/GRAD/249A/proj/EECS249-Smart-Pill-Organizer/pico-sdk/src/rp2_common/pico_stdio/stdio.c.obj
 .comment       0x0000000000000031       0x32 CMakeFiles/SPO.dir/mnt/c/study/GRAD/249A/proj/EECS249-Smart-Pill-Organizer/pico-sdk/src/rp2_common/pico_stdio_uart/stdio_uart.c.obj
 .comment       0x0000000000000031       0x32 /usr/lib/gcc/arm-none-eabi/6.3.1/../../../arm-none-eabi/lib/thumb/v6-m/libc.a(lib_a-atexit.o)
 .comment       0x0000000000000031       0x32 /usr/lib/gcc/arm-none-eabi/6.3.1/../../../arm-none-eabi/lib/thumb/v6-m/libc.a(lib_a-atoi.o)
 .comment       0x0000000000000031       0x32 /usr/lib/gcc/arm-none-eabi/6.3.1/../../../arm-none-eabi/lib/thumb/v6-m/libc.a(lib_a-atoll.o)
 .comment       0x0000000000000031       0x32 /usr/lib/gcc/arm-none-eabi/6.3.1/../../../arm-none-eabi/lib/thumb/v6-m/libc.a(lib_a-calloc.o)
 .comment       0x0000000000000031       0x32 /usr/lib/gcc/arm-none-eabi/6.3.1/../../../arm-none-eabi/lib/thumb/v6-m/libc.a(lib_a-callocr.o)
 .comment       0x0000000000000031       0x32 /usr/lib/gcc/arm-none-eabi/6.3.1/../../../arm-none-eabi/lib/thumb/v6-m/libc.a(lib_a-ctime.o)
 .comment       0x0000000000000031       0x32 /usr/lib/gcc/arm-none-eabi/6.3.1/../../../arm-none-eabi/lib/thumb/v6-m/libc.a(lib_a-impure.o)
 .comment       0x0000000000000031       0x32 /usr/lib/gcc/arm-none-eabi/6.3.1/../../../arm-none-eabi/lib/thumb/v6-m/libc.a(lib_a-lcltime.o)
 .comment       0x0000000000000031       0x32 /usr/lib/gcc/arm-none-eabi/6.3.1/../../../arm-none-eabi/lib/thumb/v6-m/libc.a(lib_a-lcltime_r.o)
 .comment       0x0000000000000031       0x32 /usr/lib/gcc/arm-none-eabi/6.3.1/../../../arm-none-eabi/lib/thumb/v6-m/libc.a(lib_a-malloc.o)
 .comment       0x0000000000000031       0x32 /usr/lib/gcc/arm-none-eabi/6.3.1/../../../arm-none-eabi/lib/thumb/v6-m/libc.a(lib_a-mallocr.o)
 .comment       0x0000000000000031       0x32 /usr/lib/gcc/arm-none-eabi/6.3.1/../../../arm-none-eabi/lib/thumb/v6-m/libc.a(lib_a-mlock.o)
 .comment       0x0000000000000031       0x32 /usr/lib/gcc/arm-none-eabi/6.3.1/../../../arm-none-eabi/lib/thumb/v6-m/libc.a(lib_a-month_lengths.o)
 .comment       0x0000000000000031       0x32 /usr/lib/gcc/arm-none-eabi/6.3.1/../../../arm-none-eabi/lib/thumb/v6-m/libc.a(lib_a-realloc.o)
 .comment       0x0000000000000031       0x32 /usr/lib/gcc/arm-none-eabi/6.3.1/../../../arm-none-eabi/lib/thumb/v6-m/libc.a(lib_a-reallocr.o)
 .comment       0x0000000000000031       0x32 /usr/lib/gcc/arm-none-eabi/6.3.1/../../../arm-none-eabi/lib/thumb/v6-m/libc.a(lib_a-sbrkr.o)
 .comment       0x0000000000000031       0x32 /usr/lib/gcc/arm-none-eabi/6.3.1/../../../arm-none-eabi/lib/thumb/v6-m/libc.a(lib_a-signal.o)
 .comment       0x0000000000000031       0x32 /usr/lib/gcc/arm-none-eabi/6.3.1/../../../arm-none-eabi/lib/thumb/v6-m/libc.a(lib_a-signalr.o)
 .comment       0x0000000000000031       0x32 /usr/lib/gcc/arm-none-eabi/6.3.1/../../../arm-none-eabi/lib/thumb/v6-m/libc.a(lib_a-strlen-stub.o)
 .comment       0x0000000000000031       0x32 /usr/lib/gcc/arm-none-eabi/6.3.1/../../../arm-none-eabi/lib/thumb/v6-m/libc.a(lib_a-strncmp.o)
 .comment       0x0000000000000031       0x32 /usr/lib/gcc/arm-none-eabi/6.3.1/../../../arm-none-eabi/lib/thumb/v6-m/libc.a(lib_a-strtol.o)
 .comment       0x0000000000000031       0x32 /usr/lib/gcc/arm-none-eabi/6.3.1/../../../arm-none-eabi/lib/thumb/v6-m/libc.a(lib_a-strtoll.o)
 .comment       0x0000000000000031       0x32 /usr/lib/gcc/arm-none-eabi/6.3.1/../../../arm-none-eabi/lib/thumb/v6-m/libc.a(lib_a-strtoll_r.o)
 .comment       0x0000000000000031       0x32 /usr/lib/gcc/arm-none-eabi/6.3.1/../../../arm-none-eabi/lib/thumb/v6-m/libc.a(lib_a-tzcalc_limits.o)
 .comment       0x0000000000000031       0x32 /usr/lib/gcc/arm-none-eabi/6.3.1/../../../arm-none-eabi/lib/thumb/v6-m/libc.a(lib_a-tzlock.o)
 .comment       0x0000000000000031       0x32 /usr/lib/gcc/arm-none-eabi/6.3.1/../../../arm-none-eabi/lib/thumb/v6-m/libc.a(lib_a-tzset.o)
 .comment       0x0000000000000031       0x32 /usr/lib/gcc/arm-none-eabi/6.3.1/../../../arm-none-eabi/lib/thumb/v6-m/libc.a(lib_a-tzset_r.o)
 .comment       0x0000000000000031       0x32 /usr/lib/gcc/arm-none-eabi/6.3.1/../../../arm-none-eabi/lib/thumb/v6-m/libc.a(lib_a-tzvars.o)
 .comment       0x0000000000000031       0x32 /usr/lib/gcc/arm-none-eabi/6.3.1/../../../arm-none-eabi/lib/thumb/v6-m/libc.a(lib_a-vfprintf.o)
 .comment       0x0000000000000031       0x32 /usr/lib/gcc/arm-none-eabi/6.3.1/../../../arm-none-eabi/lib/thumb/v6-m/libc.a(lib_a-wbuf.o)
 .comment       0x0000000000000031       0x32 /usr/lib/gcc/arm-none-eabi/6.3.1/../../../arm-none-eabi/lib/thumb/v6-m/libc.a(lib_a-wsetup.o)
 .comment       0x0000000000000031       0x32 /usr/lib/gcc/arm-none-eabi/6.3.1/../../../arm-none-eabi/lib/thumb/v6-m/libc.a(lib_a-__atexit.o)
 .comment       0x0000000000000031       0x32 /usr/lib/gcc/arm-none-eabi/6.3.1/../../../arm-none-eabi/lib/thumb/v6-m/libc.a(lib_a-asctime.o)
 .comment       0x0000000000000031       0x32 /usr/lib/gcc/arm-none-eabi/6.3.1/../../../arm-none-eabi/lib/thumb/v6-m/libc.a(lib_a-asctime_r.o)
 .comment       0x0000000000000031       0x32 /usr/lib/gcc/arm-none-eabi/6.3.1/../../../arm-none-eabi/lib/thumb/v6-m/libc.a(lib_a-ctype_.o)
 .comment       0x0000000000000031       0x32 /usr/lib/gcc/arm-none-eabi/6.3.1/../../../arm-none-eabi/lib/thumb/v6-m/libc.a(lib_a-dtoa.o)
 .comment       0x0000000000000031       0x32 /usr/lib/gcc/arm-none-eabi/6.3.1/../../../arm-none-eabi/lib/thumb/v6-m/libc.a(lib_a-fflush.o)
 .comment       0x0000000000000031       0x32 /usr/lib/gcc/arm-none-eabi/6.3.1/../../../arm-none-eabi/lib/thumb/v6-m/libc.a(lib_a-findfp.o)
 .comment       0x0000000000000031       0x32 /usr/lib/gcc/arm-none-eabi/6.3.1/../../../arm-none-eabi/lib/thumb/v6-m/libc.a(lib_a-freer.o)
 .comment       0x0000000000000031       0x32 /usr/lib/gcc/arm-none-eabi/6.3.1/../../../arm-none-eabi/lib/thumb/v6-m/libc.a(lib_a-fwalk.o)
 .comment       0x0000000000000031       0x32 /usr/lib/gcc/arm-none-eabi/6.3.1/../../../arm-none-eabi/lib/thumb/v6-m/libc.a(lib_a-getenv_r.o)
 .comment       0x0000000000000031       0x32 /usr/lib/gcc/arm-none-eabi/6.3.1/../../../arm-none-eabi/lib/thumb/v6-m/libc.a(lib_a-gettzinfo.o)
 .comment       0x0000000000000031       0x32 /usr/lib/gcc/arm-none-eabi/6.3.1/../../../arm-none-eabi/lib/thumb/v6-m/libc.a(lib_a-gmtime_r.o)
 .comment       0x0000000000000031       0x32 /usr/lib/gcc/arm-none-eabi/6.3.1/../../../arm-none-eabi/lib/thumb/v6-m/libc.a(lib_a-locale.o)
 .comment       0x0000000000000031       0x32 /usr/lib/gcc/arm-none-eabi/6.3.1/../../../arm-none-eabi/lib/thumb/v6-m/libc.a(lib_a-makebuf.o)
 .comment       0x0000000000000031       0x32 /usr/lib/gcc/arm-none-eabi/6.3.1/../../../arm-none-eabi/lib/thumb/v6-m/libc.a(lib_a-memchr-stub.o)
 .comment       0x0000000000000031       0x32 /usr/lib/gcc/arm-none-eabi/6.3.1/../../../arm-none-eabi/lib/thumb/v6-m/libc.a(lib_a-memmove.o)
 .comment       0x0000000000000031       0x32 /usr/lib/gcc/arm-none-eabi/6.3.1/../../../arm-none-eabi/lib/thumb/v6-m/libc.a(lib_a-mprec.o)
 .comment       0x0000000000000031       0x32 /usr/lib/gcc/arm-none-eabi/6.3.1/../../../arm-none-eabi/lib/thumb/v6-m/libc.a(lib_a-reent.o)
 .comment       0x0000000000000031       0x32 /usr/lib/gcc/arm-none-eabi/6.3.1/../../../arm-none-eabi/lib/thumb/v6-m/libc.a(lib_a-siprintf.o)
 .comment       0x0000000000000031       0x32 /usr/lib/gcc/arm-none-eabi/6.3.1/../../../arm-none-eabi/lib/thumb/v6-m/libc.a(lib_a-siscanf.o)
 .comment       0x0000000000000031       0x32 /usr/lib/gcc/arm-none-eabi/6.3.1/../../../arm-none-eabi/lib/thumb/v6-m/libc.a(lib_a-stdio.o)
 .comment       0x0000000000000031       0x32 /usr/lib/gcc/arm-none-eabi/6.3.1/../../../arm-none-eabi/lib/thumb/v6-m/libc.a(lib_a-strcpy.o)
 .comment       0x0000000000000031       0x32 /usr/lib/gcc/arm-none-eabi/6.3.1/../../../arm-none-eabi/lib/thumb/v6-m/libc.a(lib_a-strtoul.o)
 .comment       0x0000000000000031       0x32 /usr/lib/gcc/arm-none-eabi/6.3.1/../../../arm-none-eabi/lib/thumb/v6-m/libc.a(lib_a-svfiprintf.o)
 .comment       0x0000000000000031       0x32 /usr/lib/gcc/arm-none-eabi/6.3.1/../../../arm-none-eabi/lib/thumb/v6-m/libc.a(lib_a-svfiscanf.o)
 .comment       0x0000000000000031       0x32 /usr/lib/gcc/arm-none-eabi/6.3.1/../../../arm-none-eabi/lib/thumb/v6-m/libc.a(lib_a-ungetc.o)
 .comment       0x0000000000000031       0x32 /usr/lib/gcc/arm-none-eabi/6.3.1/../../../arm-none-eabi/lib/thumb/v6-m/libc.a(lib_a-vfiprintf.o)
 .comment       0x0000000000000031       0x32 /usr/lib/gcc/arm-none-eabi/6.3.1/../../../arm-none-eabi/lib/thumb/v6-m/libc.a(lib_a-writer.o)
 .comment       0x0000000000000031       0x32 /usr/lib/gcc/arm-none-eabi/6.3.1/../../../arm-none-eabi/lib/thumb/v6-m/libc.a(lib_a-closer.o)
 .comment       0x0000000000000031       0x32 /usr/lib/gcc/arm-none-eabi/6.3.1/../../../arm-none-eabi/lib/thumb/v6-m/libc.a(lib_a-environ.o)
 .comment       0x0000000000000031       0x32 /usr/lib/gcc/arm-none-eabi/6.3.1/../../../arm-none-eabi/lib/thumb/v6-m/libc.a(lib_a-envlock.o)
 .comment       0x0000000000000031       0x32 /usr/lib/gcc/arm-none-eabi/6.3.1/../../../arm-none-eabi/lib/thumb/v6-m/libc.a(lib_a-fclose.o)
 .comment       0x0000000000000031       0x32 /usr/lib/gcc/arm-none-eabi/6.3.1/../../../arm-none-eabi/lib/thumb/v6-m/libc.a(lib_a-fputwc.o)
 .comment       0x0000000000000031       0x32 /usr/lib/gcc/arm-none-eabi/6.3.1/../../../arm-none-eabi/lib/thumb/v6-m/libc.a(lib_a-fstatr.o)
 .comment       0x0000000000000031       0x32 /usr/lib/gcc/arm-none-eabi/6.3.1/../../../arm-none-eabi/lib/thumb/v6-m/libc.a(lib_a-fvwrite.o)
 .comment       0x0000000000000031       0x32 /usr/lib/gcc/arm-none-eabi/6.3.1/../../../arm-none-eabi/lib/thumb/v6-m/libc.a(lib_a-isattyr.o)
 .comment       0x0000000000000031       0x32 /usr/lib/gcc/arm-none-eabi/6.3.1/../../../arm-none-eabi/lib/thumb/v6-m/libc.a(lib_a-iswspace.o)
 .comment       0x0000000000000031       0x32 /usr/lib/gcc/arm-none-eabi/6.3.1/../../../arm-none-eabi/lib/thumb/v6-m/libc.a(lib_a-lseekr.o)
 .comment       0x0000000000000031       0x32 /usr/lib/gcc/arm-none-eabi/6.3.1/../../../arm-none-eabi/lib/thumb/v6-m/libc.a(lib_a-mbrtowc.o)
 .comment       0x0000000000000031       0x32 /usr/lib/gcc/arm-none-eabi/6.3.1/../../../arm-none-eabi/lib/thumb/v6-m/libc.a(lib_a-mbtowc_r.o)
 .comment       0x0000000000000031       0x32 /usr/lib/gcc/arm-none-eabi/6.3.1/../../../arm-none-eabi/lib/thumb/v6-m/libc.a(lib_a-readr.o)
 .comment       0x0000000000000031       0x32 /usr/lib/gcc/arm-none-eabi/6.3.1/../../../arm-none-eabi/lib/thumb/v6-m/libc.a(lib_a-sccl.o)
 .comment       0x0000000000000031       0x32 /usr/lib/gcc/arm-none-eabi/6.3.1/../../../arm-none-eabi/lib/thumb/v6-m/libc.a(lib_a-strtoull_r.o)
 .comment       0x0000000000000031       0x32 /usr/lib/gcc/arm-none-eabi/6.3.1/../../../arm-none-eabi/lib/thumb/v6-m/libc.a(lib_a-wcrtomb.o)
 .comment       0x0000000000000031       0x32 /usr/lib/gcc/arm-none-eabi/6.3.1/../../../arm-none-eabi/lib/thumb/v6-m/libc.a(lib_a-wctomb_r.o)
 .comment       0x0000000000000031       0x32 /usr/lib/gcc/arm-none-eabi/6.3.1/../../../arm-none-eabi/lib/thumb/v6-m/libnosys.a(close.o)
 .comment       0x0000000000000031       0x32 /usr/lib/gcc/arm-none-eabi/6.3.1/../../../arm-none-eabi/lib/thumb/v6-m/libnosys.a(fstat.o)
 .comment       0x0000000000000031       0x32 /usr/lib/gcc/arm-none-eabi/6.3.1/../../../arm-none-eabi/lib/thumb/v6-m/libnosys.a(getpid.o)
 .comment       0x0000000000000031       0x32 /usr/lib/gcc/arm-none-eabi/6.3.1/../../../arm-none-eabi/lib/thumb/v6-m/libnosys.a(isatty.o)
 .comment       0x0000000000000031       0x32 /usr/lib/gcc/arm-none-eabi/6.3.1/../../../arm-none-eabi/lib/thumb/v6-m/libnosys.a(kill.o)
 .comment       0x0000000000000031       0x32 /usr/lib/gcc/arm-none-eabi/6.3.1/../../../arm-none-eabi/lib/thumb/v6-m/libnosys.a(lseek.o)
 .comment       0x0000000000000031       0x32 /usr/lib/gcc/arm-none-eabi/6.3.1/thumb/v6-m/crtend.o

.debug_line     0x0000000000000000     0xa285
 .debug_line    0x0000000000000000       0x61 /usr/lib/gcc/arm-none-eabi/6.3.1/thumb/v6-m/libgcc.a(_dvmd_tls.o)
 .debug_line    0x0000000000000061      0x153 /usr/lib/gcc/arm-none-eabi/6.3.1/../../../arm-none-eabi/lib/thumb/v6-m/libc.a(lib_a-atexit.o)
 .debug_line    0x00000000000001b4      0x148 /usr/lib/gcc/arm-none-eabi/6.3.1/../../../arm-none-eabi/lib/thumb/v6-m/libc.a(lib_a-atoi.o)
 .debug_line    0x00000000000002fc      0x149 /usr/lib/gcc/arm-none-eabi/6.3.1/../../../arm-none-eabi/lib/thumb/v6-m/libc.a(lib_a-atoll.o)
 .debug_line    0x0000000000000445      0x148 /usr/lib/gcc/arm-none-eabi/6.3.1/../../../arm-none-eabi/lib/thumb/v6-m/libc.a(lib_a-calloc.o)
 .debug_line    0x000000000000058d      0x140 /usr/lib/gcc/arm-none-eabi/6.3.1/../../../arm-none-eabi/lib/thumb/v6-m/libc.a(lib_a-callocr.o)
 .debug_line    0x00000000000006cd      0x14f /usr/lib/gcc/arm-none-eabi/6.3.1/../../../arm-none-eabi/lib/thumb/v6-m/libc.a(lib_a-ctime.o)
 .debug_line    0x000000000000081c       0xe9 /usr/lib/gcc/arm-none-eabi/6.3.1/../../../arm-none-eabi/lib/thumb/v6-m/libc.a(lib_a-impure.o)
 .debug_line    0x0000000000000905      0x153 /usr/lib/gcc/arm-none-eabi/6.3.1/../../../arm-none-eabi/lib/thumb/v6-m/libc.a(lib_a-lcltime.o)
 .debug_line    0x0000000000000a58      0x251 /usr/lib/gcc/arm-none-eabi/6.3.1/../../../arm-none-eabi/lib/thumb/v6-m/libc.a(lib_a-lcltime_r.o)
 .debug_line    0x0000000000000ca9      0x15a /usr/lib/gcc/arm-none-eabi/6.3.1/../../../arm-none-eabi/lib/thumb/v6-m/libc.a(lib_a-malloc.o)
 .debug_line    0x0000000000000e03      0x38b /usr/lib/gcc/arm-none-eabi/6.3.1/../../../arm-none-eabi/lib/thumb/v6-m/libc.a(lib_a-mallocr.o)
 .debug_line    0x000000000000118e       0xf9 /usr/lib/gcc/arm-none-eabi/6.3.1/../../../arm-none-eabi/lib/thumb/v6-m/libc.a(lib_a-mlock.o)
 .debug_line    0x0000000000001287      0x143 /usr/lib/gcc/arm-none-eabi/6.3.1/../../../arm-none-eabi/lib/thumb/v6-m/libc.a(lib_a-month_lengths.o)
 .debug_line    0x00000000000013ca      0x155 /usr/lib/gcc/arm-none-eabi/6.3.1/../../../arm-none-eabi/lib/thumb/v6-m/libc.a(lib_a-realloc.o)
 .debug_line    0x000000000000151f      0x25f /usr/lib/gcc/arm-none-eabi/6.3.1/../../../arm-none-eabi/lib/thumb/v6-m/libc.a(lib_a-reallocr.o)
 .debug_line    0x000000000000177e      0x15b /usr/lib/gcc/arm-none-eabi/6.3.1/../../../arm-none-eabi/lib/thumb/v6-m/libc.a(lib_a-sbrkr.o)
 .debug_line    0x00000000000018d9      0x1fd /usr/lib/gcc/arm-none-eabi/6.3.1/../../../arm-none-eabi/lib/thumb/v6-m/libc.a(lib_a-signal.o)
 .debug_line    0x0000000000001ad6      0x163 /usr/lib/gcc/arm-none-eabi/6.3.1/../../../arm-none-eabi/lib/thumb/v6-m/libc.a(lib_a-signalr.o)
 .debug_line    0x0000000000001c39       0xad /usr/lib/gcc/arm-none-eabi/6.3.1/../../../arm-none-eabi/lib/thumb/v6-m/libc.a(lib_a-strcmp.o)
 .debug_line    0x0000000000001ce6      0x170 /usr/lib/gcc/arm-none-eabi/6.3.1/../../../arm-none-eabi/lib/thumb/v6-m/libc.a(lib_a-strlen-stub.o)
 .debug_line    0x0000000000001e56      0x17c /usr/lib/gcc/arm-none-eabi/6.3.1/../../../arm-none-eabi/lib/thumb/v6-m/libc.a(lib_a-strncmp.o)
 .debug_line    0x0000000000001fd2      0x200 /usr/lib/gcc/arm-none-eabi/6.3.1/../../../arm-none-eabi/lib/thumb/v6-m/libc.a(lib_a-strtol.o)
 .debug_line    0x00000000000021d2      0x161 /usr/lib/gcc/arm-none-eabi/6.3.1/../../../arm-none-eabi/lib/thumb/v6-m/libc.a(lib_a-strtoll.o)
 .debug_line    0x0000000000002333      0x21d /usr/lib/gcc/arm-none-eabi/6.3.1/../../../arm-none-eabi/lib/thumb/v6-m/libc.a(lib_a-strtoll_r.o)
 .debug_line    0x0000000000002550      0x225 /usr/lib/gcc/arm-none-eabi/6.3.1/../../../arm-none-eabi/lib/thumb/v6-m/libc.a(lib_a-tzcalc_limits.o)
 .debug_line    0x0000000000002775      0x14c /usr/lib/gcc/arm-none-eabi/6.3.1/../../../arm-none-eabi/lib/thumb/v6-m/libc.a(lib_a-tzlock.o)
 .debug_line    0x00000000000028c1      0x156 /usr/lib/gcc/arm-none-eabi/6.3.1/../../../arm-none-eabi/lib/thumb/v6-m/libc.a(lib_a-tzset.o)
 .debug_line    0x0000000000002a17      0x26e /usr/lib/gcc/arm-none-eabi/6.3.1/../../../arm-none-eabi/lib/thumb/v6-m/libc.a(lib_a-tzset_r.o)
 .debug_line    0x0000000000002c85       0xff /usr/lib/gcc/arm-none-eabi/6.3.1/../../../arm-none-eabi/lib/thumb/v6-m/libc.a(lib_a-tzvars.o)
 .debug_line    0x0000000000002d84      0x9ec /usr/lib/gcc/arm-none-eabi/6.3.1/../../../arm-none-eabi/lib/thumb/v6-m/libc.a(lib_a-vfprintf.o)
 .debug_line    0x0000000000003770      0x1d7 /usr/lib/gcc/arm-none-eabi/6.3.1/../../../arm-none-eabi/lib/thumb/v6-m/libc.a(lib_a-wbuf.o)
 .debug_line    0x0000000000003947      0x1dd /usr/lib/gcc/arm-none-eabi/6.3.1/../../../arm-none-eabi/lib/thumb/v6-m/libc.a(lib_a-wsetup.o)
 .debug_line    0x0000000000003b24      0x18f /usr/lib/gcc/arm-none-eabi/6.3.1/../../../arm-none-eabi/lib/thumb/v6-m/libc.a(lib_a-__atexit.o)
 .debug_line    0x0000000000003cb3      0x145 /usr/lib/gcc/arm-none-eabi/6.3.1/../../../arm-none-eabi/lib/thumb/v6-m/libc.a(lib_a-asctime.o)
 .debug_line    0x0000000000003df8      0x161 /usr/lib/gcc/arm-none-eabi/6.3.1/../../../arm-none-eabi/lib/thumb/v6-m/libc.a(lib_a-asctime_r.o)
 .debug_line    0x0000000000003f59       0x67 /usr/lib/gcc/arm-none-eabi/6.3.1/../../../arm-none-eabi/lib/thumb/v6-m/libc.a(lib_a-ctype_.o)
 .debug_line    0x0000000000003fc0      0x695 /usr/lib/gcc/arm-none-eabi/6.3.1/../../../arm-none-eabi/lib/thumb/v6-m/libc.a(lib_a-dtoa.o)
 .debug_line    0x0000000000004655      0x23b /usr/lib/gcc/arm-none-eabi/6.3.1/../../../arm-none-eabi/lib/thumb/v6-m/libc.a(lib_a-fflush.o)
 .debug_line    0x0000000000004890      0x28a /usr/lib/gcc/arm-none-eabi/6.3.1/../../../arm-none-eabi/lib/thumb/v6-m/libc.a(lib_a-findfp.o)
 .debug_line    0x0000000000004b1a      0x236 /usr/lib/gcc/arm-none-eabi/6.3.1/../../../arm-none-eabi/lib/thumb/v6-m/libc.a(lib_a-freer.o)
 .debug_line    0x0000000000004d50      0x1b9 /usr/lib/gcc/arm-none-eabi/6.3.1/../../../arm-none-eabi/lib/thumb/v6-m/libc.a(lib_a-fwalk.o)
 .debug_line    0x0000000000004f09      0x18d /usr/lib/gcc/arm-none-eabi/6.3.1/../../../arm-none-eabi/lib/thumb/v6-m/libc.a(lib_a-getenv_r.o)
 .debug_line    0x0000000000005096      0x15d /usr/lib/gcc/arm-none-eabi/6.3.1/../../../arm-none-eabi/lib/thumb/v6-m/libc.a(lib_a-gettzinfo.o)
 .debug_line    0x00000000000051f3      0x1c2 /usr/lib/gcc/arm-none-eabi/6.3.1/../../../arm-none-eabi/lib/thumb/v6-m/libc.a(lib_a-gmtime_r.o)
 .debug_line    0x00000000000053b5      0x1e0 /usr/lib/gcc/arm-none-eabi/6.3.1/../../../arm-none-eabi/lib/thumb/v6-m/libc.a(lib_a-locale.o)
 .debug_line    0x0000000000005595      0x24f /usr/lib/gcc/arm-none-eabi/6.3.1/../../../arm-none-eabi/lib/thumb/v6-m/libc.a(lib_a-makebuf.o)
 .debug_line    0x00000000000057e4      0x183 /usr/lib/gcc/arm-none-eabi/6.3.1/../../../arm-none-eabi/lib/thumb/v6-m/libc.a(lib_a-memchr-stub.o)
 .debug_line    0x0000000000005967      0x178 /usr/lib/gcc/arm-none-eabi/6.3.1/../../../arm-none-eabi/lib/thumb/v6-m/libc.a(lib_a-memmove.o)
 .debug_line    0x0000000000005adf      0x605 /usr/lib/gcc/arm-none-eabi/6.3.1/../../../arm-none-eabi/lib/thumb/v6-m/libc.a(lib_a-mprec.o)
 .debug_line    0x00000000000060e4      0x17a /usr/lib/gcc/arm-none-eabi/6.3.1/../../../arm-none-eabi/lib/thumb/v6-m/libc.a(lib_a-reent.o)
 .debug_line    0x000000000000625e      0x1b3 /usr/lib/gcc/arm-none-eabi/6.3.1/../../../arm-none-eabi/lib/thumb/v6-m/libc.a(lib_a-siprintf.o)
 .debug_line    0x0000000000006411      0x1c1 /usr/lib/gcc/arm-none-eabi/6.3.1/../../../arm-none-eabi/lib/thumb/v6-m/libc.a(lib_a-siscanf.o)
 .debug_line    0x00000000000065d2      0x1b1 /usr/lib/gcc/arm-none-eabi/6.3.1/../../../arm-none-eabi/lib/thumb/v6-m/libc.a(lib_a-stdio.o)
 .debug_line    0x0000000000006783      0x14d /usr/lib/gcc/arm-none-eabi/6.3.1/../../../arm-none-eabi/lib/thumb/v6-m/libc.a(lib_a-strcpy.o)
 .debug_line    0x00000000000068d0      0x1ee /usr/lib/gcc/arm-none-eabi/6.3.1/../../../arm-none-eabi/lib/thumb/v6-m/libc.a(lib_a-strtoul.o)
 .debug_line    0x0000000000006abe      0x697 /usr/lib/gcc/arm-none-eabi/6.3.1/../../../arm-none-eabi/lib/thumb/v6-m/libc.a(lib_a-svfiprintf.o)
 .debug_line    0x0000000000007155      0x5dd /usr/lib/gcc/arm-none-eabi/6.3.1/../../../arm-none-eabi/lib/thumb/v6-m/libc.a(lib_a-svfiscanf.o)
 .debug_line    0x0000000000007732      0x1f7 /usr/lib/gcc/arm-none-eabi/6.3.1/../../../arm-none-eabi/lib/thumb/v6-m/libc.a(lib_a-ungetc.o)
 .debug_line    0x0000000000007929      0x72d /usr/lib/gcc/arm-none-eabi/6.3.1/../../../arm-none-eabi/lib/thumb/v6-m/libc.a(lib_a-vfiprintf.o)
 .debug_line    0x0000000000008056      0x159 /usr/lib/gcc/arm-none-eabi/6.3.1/../../../arm-none-eabi/lib/thumb/v6-m/libc.a(lib_a-writer.o)
 .debug_line    0x00000000000081af      0x15d /usr/lib/gcc/arm-none-eabi/6.3.1/../../../arm-none-eabi/lib/thumb/v6-m/libc.a(lib_a-closer.o)
 .debug_line    0x000000000000830c       0x52 /usr/lib/gcc/arm-none-eabi/6.3.1/../../../arm-none-eabi/lib/thumb/v6-m/libc.a(lib_a-environ.o)
 .debug_line    0x000000000000835e      0x147 /usr/lib/gcc/arm-none-eabi/6.3.1/../../../arm-none-eabi/lib/thumb/v6-m/libc.a(lib_a-envlock.o)
 .debug_line    0x00000000000084a5      0x199 /usr/lib/gcc/arm-none-eabi/6.3.1/../../../arm-none-eabi/lib/thumb/v6-m/libc.a(lib_a-fclose.o)
 .debug_line    0x000000000000863e      0x1d9 /usr/lib/gcc/arm-none-eabi/6.3.1/../../../arm-none-eabi/lib/thumb/v6-m/libc.a(lib_a-fputwc.o)
 .debug_line    0x0000000000008817      0x1e5 /usr/lib/gcc/arm-none-eabi/6.3.1/../../../arm-none-eabi/lib/thumb/v6-m/libc.a(lib_a-fstatr.o)
 .debug_line    0x00000000000089fc      0x29b /usr/lib/gcc/arm-none-eabi/6.3.1/../../../arm-none-eabi/lib/thumb/v6-m/libc.a(lib_a-fvwrite.o)
 .debug_line    0x0000000000008c97      0x15e /usr/lib/gcc/arm-none-eabi/6.3.1/../../../arm-none-eabi/lib/thumb/v6-m/libc.a(lib_a-isattyr.o)
 .debug_line    0x0000000000008df5      0x161 /usr/lib/gcc/arm-none-eabi/6.3.1/../../../arm-none-eabi/lib/thumb/v6-m/libc.a(lib_a-iswspace.o)
 .debug_line    0x0000000000008f56      0x159 /usr/lib/gcc/arm-none-eabi/6.3.1/../../../arm-none-eabi/lib/thumb/v6-m/libc.a(lib_a-lseekr.o)
 .debug_line    0x00000000000090af      0x186 /usr/lib/gcc/arm-none-eabi/6.3.1/../../../arm-none-eabi/lib/thumb/v6-m/libc.a(lib_a-mbrtowc.o)
 .debug_line    0x0000000000009235      0x183 /usr/lib/gcc/arm-none-eabi/6.3.1/../../../arm-none-eabi/lib/thumb/v6-m/libc.a(lib_a-mbtowc_r.o)
 .debug_line    0x00000000000093b8      0x158 /usr/lib/gcc/arm-none-eabi/6.3.1/../../../arm-none-eabi/lib/thumb/v6-m/libc.a(lib_a-readr.o)
 .debug_line    0x0000000000009510      0x1a5 /usr/lib/gcc/arm-none-eabi/6.3.1/../../../arm-none-eabi/lib/thumb/v6-m/libc.a(lib_a-sccl.o)
 .debug_line    0x00000000000096b5      0x1eb /usr/lib/gcc/arm-none-eabi/6.3.1/../../../arm-none-eabi/lib/thumb/v6-m/libc.a(lib_a-strtoull_r.o)
 .debug_line    0x00000000000098a0      0x186 /usr/lib/gcc/arm-none-eabi/6.3.1/../../../arm-none-eabi/lib/thumb/v6-m/libc.a(lib_a-wcrtomb.o)
 .debug_line    0x0000000000009a26      0x17b /usr/lib/gcc/arm-none-eabi/6.3.1/../../../arm-none-eabi/lib/thumb/v6-m/libc.a(lib_a-wctomb_r.o)
 .debug_line    0x0000000000009ba1      0x105 /usr/lib/gcc/arm-none-eabi/6.3.1/../../../arm-none-eabi/lib/thumb/v6-m/libnosys.a(close.o)
 .debug_line    0x0000000000009ca6      0x1cc /usr/lib/gcc/arm-none-eabi/6.3.1/../../../arm-none-eabi/lib/thumb/v6-m/libnosys.a(fstat.o)
 .debug_line    0x0000000000009e72      0x106 /usr/lib/gcc/arm-none-eabi/6.3.1/../../../arm-none-eabi/lib/thumb/v6-m/libnosys.a(getpid.o)
 .debug_line    0x0000000000009f78      0x104 /usr/lib/gcc/arm-none-eabi/6.3.1/../../../arm-none-eabi/lib/thumb/v6-m/libnosys.a(isatty.o)
 .debug_line    0x000000000000a07c      0x104 /usr/lib/gcc/arm-none-eabi/6.3.1/../../../arm-none-eabi/lib/thumb/v6-m/libnosys.a(kill.o)
 .debug_line    0x000000000000a180      0x105 /usr/lib/gcc/arm-none-eabi/6.3.1/../../../arm-none-eabi/lib/thumb/v6-m/libnosys.a(lseek.o)

.debug_info     0x0000000000000000    0x38cdf
 .debug_info    0x0000000000000000       0xbf /usr/lib/gcc/arm-none-eabi/6.3.1/thumb/v6-m/libgcc.a(_dvmd_tls.o)
 .debug_info    0x00000000000000bf      0x907 /usr/lib/gcc/arm-none-eabi/6.3.1/../../../arm-none-eabi/lib/thumb/v6-m/libc.a(lib_a-atexit.o)
 .debug_info    0x00000000000009c6      0x941 /usr/lib/gcc/arm-none-eabi/6.3.1/../../../arm-none-eabi/lib/thumb/v6-m/libc.a(lib_a-atoi.o)
 .debug_info    0x0000000000001307      0x945 /usr/lib/gcc/arm-none-eabi/6.3.1/../../../arm-none-eabi/lib/thumb/v6-m/libc.a(lib_a-atoll.o)
 .debug_info    0x0000000000001c4c      0x8f6 /usr/lib/gcc/arm-none-eabi/6.3.1/../../../arm-none-eabi/lib/thumb/v6-m/libc.a(lib_a-calloc.o)
 .debug_info    0x0000000000002542      0xb59 /usr/lib/gcc/arm-none-eabi/6.3.1/../../../arm-none-eabi/lib/thumb/v6-m/libc.a(lib_a-callocr.o)
 .debug_info    0x000000000000309b      0x92a /usr/lib/gcc/arm-none-eabi/6.3.1/../../../arm-none-eabi/lib/thumb/v6-m/libc.a(lib_a-ctime.o)
 .debug_info    0x00000000000039c5      0x8a5 /usr/lib/gcc/arm-none-eabi/6.3.1/../../../arm-none-eabi/lib/thumb/v6-m/libc.a(lib_a-impure.o)
 .debug_info    0x000000000000426a      0x99f /usr/lib/gcc/arm-none-eabi/6.3.1/../../../arm-none-eabi/lib/thumb/v6-m/libc.a(lib_a-lcltime.o)
 .debug_info    0x0000000000004c09      0xb73 /usr/lib/gcc/arm-none-eabi/6.3.1/../../../arm-none-eabi/lib/thumb/v6-m/libc.a(lib_a-lcltime_r.o)
 .debug_info    0x000000000000577c      0x922 /usr/lib/gcc/arm-none-eabi/6.3.1/../../../arm-none-eabi/lib/thumb/v6-m/libc.a(lib_a-malloc.o)
 .debug_info    0x000000000000609e      0xdd4 /usr/lib/gcc/arm-none-eabi/6.3.1/../../../arm-none-eabi/lib/thumb/v6-m/libc.a(lib_a-mallocr.o)
 .debug_info    0x0000000000006e72      0x8d8 /usr/lib/gcc/arm-none-eabi/6.3.1/../../../arm-none-eabi/lib/thumb/v6-m/libc.a(lib_a-mlock.o)
 .debug_info    0x000000000000774a      0x8e7 /usr/lib/gcc/arm-none-eabi/6.3.1/../../../arm-none-eabi/lib/thumb/v6-m/libc.a(lib_a-month_lengths.o)
 .debug_info    0x0000000000008031      0x8f6 /usr/lib/gcc/arm-none-eabi/6.3.1/../../../arm-none-eabi/lib/thumb/v6-m/libc.a(lib_a-realloc.o)
 .debug_info    0x0000000000008927      0xdd0 /usr/lib/gcc/arm-none-eabi/6.3.1/../../../arm-none-eabi/lib/thumb/v6-m/libc.a(lib_a-reallocr.o)
 .debug_info    0x00000000000096f7      0x95a /usr/lib/gcc/arm-none-eabi/6.3.1/../../../arm-none-eabi/lib/thumb/v6-m/libc.a(lib_a-sbrkr.o)
 .debug_info    0x000000000000a051      0xc5f /usr/lib/gcc/arm-none-eabi/6.3.1/../../../arm-none-eabi/lib/thumb/v6-m/libc.a(lib_a-signal.o)
 .debug_info    0x000000000000acb0      0x9c2 /usr/lib/gcc/arm-none-eabi/6.3.1/../../../arm-none-eabi/lib/thumb/v6-m/libc.a(lib_a-signalr.o)
 .debug_info    0x000000000000b672       0xc8 /usr/lib/gcc/arm-none-eabi/6.3.1/../../../arm-none-eabi/lib/thumb/v6-m/libc.a(lib_a-strcmp.o)
 .debug_info    0x000000000000b73a      0x8de /usr/lib/gcc/arm-none-eabi/6.3.1/../../../arm-none-eabi/lib/thumb/v6-m/libc.a(lib_a-strlen-stub.o)
 .debug_info    0x000000000000c018      0x8f6 /usr/lib/gcc/arm-none-eabi/6.3.1/../../../arm-none-eabi/lib/thumb/v6-m/libc.a(lib_a-strncmp.o)
 .debug_info    0x000000000000c90e      0xa1b /usr/lib/gcc/arm-none-eabi/6.3.1/../../../arm-none-eabi/lib/thumb/v6-m/libc.a(lib_a-strtol.o)
 .debug_info    0x000000000000d329      0x960 /usr/lib/gcc/arm-none-eabi/6.3.1/../../../arm-none-eabi/lib/thumb/v6-m/libc.a(lib_a-strtoll.o)
 .debug_info    0x000000000000dc89      0x9b8 /usr/lib/gcc/arm-none-eabi/6.3.1/../../../arm-none-eabi/lib/thumb/v6-m/libc.a(lib_a-strtoll_r.o)
 .debug_info    0x000000000000e641      0xa94 /usr/lib/gcc/arm-none-eabi/6.3.1/../../../arm-none-eabi/lib/thumb/v6-m/libc.a(lib_a-tzcalc_limits.o)
 .debug_info    0x000000000000f0d5      0x90c /usr/lib/gcc/arm-none-eabi/6.3.1/../../../arm-none-eabi/lib/thumb/v6-m/libc.a(lib_a-tzlock.o)
 .debug_info    0x000000000000f9e1      0x953 /usr/lib/gcc/arm-none-eabi/6.3.1/../../../arm-none-eabi/lib/thumb/v6-m/libc.a(lib_a-tzset.o)
 .debug_info    0x0000000000010334      0xd9e /usr/lib/gcc/arm-none-eabi/6.3.1/../../../arm-none-eabi/lib/thumb/v6-m/libc.a(lib_a-tzset_r.o)
 .debug_info    0x00000000000110d2      0x8d0 /usr/lib/gcc/arm-none-eabi/6.3.1/../../../arm-none-eabi/lib/thumb/v6-m/libc.a(lib_a-tzvars.o)
 .debug_info    0x00000000000119a2     0x19d2 /usr/lib/gcc/arm-none-eabi/6.3.1/../../../arm-none-eabi/lib/thumb/v6-m/libc.a(lib_a-vfprintf.o)
 .debug_info    0x0000000000013374      0xbce /usr/lib/gcc/arm-none-eabi/6.3.1/../../../arm-none-eabi/lib/thumb/v6-m/libc.a(lib_a-wbuf.o)
 .debug_info    0x0000000000013f42      0xb46 /usr/lib/gcc/arm-none-eabi/6.3.1/../../../arm-none-eabi/lib/thumb/v6-m/libc.a(lib_a-wsetup.o)
 .debug_info    0x0000000000014a88      0x950 /usr/lib/gcc/arm-none-eabi/6.3.1/../../../arm-none-eabi/lib/thumb/v6-m/libc.a(lib_a-__atexit.o)
 .debug_info    0x00000000000153d8      0x98e /usr/lib/gcc/arm-none-eabi/6.3.1/../../../arm-none-eabi/lib/thumb/v6-m/libc.a(lib_a-asctime.o)
 .debug_info    0x0000000000015d66      0x9f9 /usr/lib/gcc/arm-none-eabi/6.3.1/../../../arm-none-eabi/lib/thumb/v6-m/libc.a(lib_a-asctime_r.o)
 .debug_info    0x000000000001675f       0xc0 /usr/lib/gcc/arm-none-eabi/6.3.1/../../../arm-none-eabi/lib/thumb/v6-m/libc.a(lib_a-ctype_.o)
 .debug_info    0x000000000001681f     0x1330 /usr/lib/gcc/arm-none-eabi/6.3.1/../../../arm-none-eabi/lib/thumb/v6-m/libc.a(lib_a-dtoa.o)
 .debug_info    0x0000000000017b4f      0xc9d /usr/lib/gcc/arm-none-eabi/6.3.1/../../../arm-none-eabi/lib/thumb/v6-m/libc.a(lib_a-fflush.o)
 .debug_info    0x00000000000187ec      0xfa1 /usr/lib/gcc/arm-none-eabi/6.3.1/../../../arm-none-eabi/lib/thumb/v6-m/libc.a(lib_a-findfp.o)
 .debug_info    0x000000000001978d      0xc93 /usr/lib/gcc/arm-none-eabi/6.3.1/../../../arm-none-eabi/lib/thumb/v6-m/libc.a(lib_a-freer.o)
 .debug_info    0x000000000001a420      0xbcc /usr/lib/gcc/arm-none-eabi/6.3.1/../../../arm-none-eabi/lib/thumb/v6-m/libc.a(lib_a-fwalk.o)
 .debug_info    0x000000000001afec      0x9fc /usr/lib/gcc/arm-none-eabi/6.3.1/../../../arm-none-eabi/lib/thumb/v6-m/libc.a(lib_a-getenv_r.o)
 .debug_info    0x000000000001b9e8      0x9c8 /usr/lib/gcc/arm-none-eabi/6.3.1/../../../arm-none-eabi/lib/thumb/v6-m/libc.a(lib_a-gettzinfo.o)
 .debug_info    0x000000000001c3b0      0xa5d /usr/lib/gcc/arm-none-eabi/6.3.1/../../../arm-none-eabi/lib/thumb/v6-m/libc.a(lib_a-gmtime_r.o)
 .debug_info    0x000000000001ce0d      0xd32 /usr/lib/gcc/arm-none-eabi/6.3.1/../../../arm-none-eabi/lib/thumb/v6-m/libc.a(lib_a-locale.o)
 .debug_info    0x000000000001db3f      0xe45 /usr/lib/gcc/arm-none-eabi/6.3.1/../../../arm-none-eabi/lib/thumb/v6-m/libc.a(lib_a-makebuf.o)
 .debug_info    0x000000000001e984      0x935 /usr/lib/gcc/arm-none-eabi/6.3.1/../../../arm-none-eabi/lib/thumb/v6-m/libc.a(lib_a-memchr-stub.o)
 .debug_info    0x000000000001f2b9      0x92a /usr/lib/gcc/arm-none-eabi/6.3.1/../../../arm-none-eabi/lib/thumb/v6-m/libc.a(lib_a-memmove.o)
 .debug_info    0x000000000001fbe3     0x175c /usr/lib/gcc/arm-none-eabi/6.3.1/../../../arm-none-eabi/lib/thumb/v6-m/libc.a(lib_a-mprec.o)
 .debug_info    0x000000000002133f      0xa15 /usr/lib/gcc/arm-none-eabi/6.3.1/../../../arm-none-eabi/lib/thumb/v6-m/libc.a(lib_a-reent.o)
 .debug_info    0x0000000000021d54      0xbbb /usr/lib/gcc/arm-none-eabi/6.3.1/../../../arm-none-eabi/lib/thumb/v6-m/libc.a(lib_a-siprintf.o)
 .debug_info    0x000000000002290f      0xbec /usr/lib/gcc/arm-none-eabi/6.3.1/../../../arm-none-eabi/lib/thumb/v6-m/libc.a(lib_a-siscanf.o)
 .debug_info    0x00000000000234fb      0xd55 /usr/lib/gcc/arm-none-eabi/6.3.1/../../../arm-none-eabi/lib/thumb/v6-m/libc.a(lib_a-stdio.o)
 .debug_info    0x0000000000024250      0x8b8 /usr/lib/gcc/arm-none-eabi/6.3.1/../../../arm-none-eabi/lib/thumb/v6-m/libc.a(lib_a-strcpy.o)
 .debug_info    0x0000000000024b08      0xa1b /usr/lib/gcc/arm-none-eabi/6.3.1/../../../arm-none-eabi/lib/thumb/v6-m/libc.a(lib_a-strtoul.o)
 .debug_info    0x0000000000025523     0x12fc /usr/lib/gcc/arm-none-eabi/6.3.1/../../../arm-none-eabi/lib/thumb/v6-m/libc.a(lib_a-svfiprintf.o)
 .debug_info    0x000000000002681f     0x143b /usr/lib/gcc/arm-none-eabi/6.3.1/../../../arm-none-eabi/lib/thumb/v6-m/libc.a(lib_a-svfiscanf.o)
 .debug_info    0x0000000000027c5a      0xc91 /usr/lib/gcc/arm-none-eabi/6.3.1/../../../arm-none-eabi/lib/thumb/v6-m/libc.a(lib_a-ungetc.o)
 .debug_info    0x00000000000288eb     0x17ed /usr/lib/gcc/arm-none-eabi/6.3.1/../../../arm-none-eabi/lib/thumb/v6-m/libc.a(lib_a-vfiprintf.o)
 .debug_info    0x000000000002a0d8      0x999 /usr/lib/gcc/arm-none-eabi/6.3.1/../../../arm-none-eabi/lib/thumb/v6-m/libc.a(lib_a-writer.o)
 .debug_info    0x000000000002aa71      0x950 /usr/lib/gcc/arm-none-eabi/6.3.1/../../../arm-none-eabi/lib/thumb/v6-m/libc.a(lib_a-closer.o)
 .debug_info    0x000000000002b3c1       0x6a /usr/lib/gcc/arm-none-eabi/6.3.1/../../../arm-none-eabi/lib/thumb/v6-m/libc.a(lib_a-environ.o)
 .debug_info    0x000000000002b42b      0x8d8 /usr/lib/gcc/arm-none-eabi/6.3.1/../../../arm-none-eabi/lib/thumb/v6-m/libc.a(lib_a-envlock.o)
 .debug_info    0x000000000002bd03      0xc08 /usr/lib/gcc/arm-none-eabi/6.3.1/../../../arm-none-eabi/lib/thumb/v6-m/libc.a(lib_a-fclose.o)
 .debug_info    0x000000000002c90b      0xd45 /usr/lib/gcc/arm-none-eabi/6.3.1/../../../arm-none-eabi/lib/thumb/v6-m/libc.a(lib_a-fputwc.o)
 .debug_info    0x000000000002d650      0xb62 /usr/lib/gcc/arm-none-eabi/6.3.1/../../../arm-none-eabi/lib/thumb/v6-m/libc.a(lib_a-fstatr.o)
 .debug_info    0x000000000002e1b2      0xdfc /usr/lib/gcc/arm-none-eabi/6.3.1/../../../arm-none-eabi/lib/thumb/v6-m/libc.a(lib_a-fvwrite.o)
 .debug_info    0x000000000002efae      0x950 /usr/lib/gcc/arm-none-eabi/6.3.1/../../../arm-none-eabi/lib/thumb/v6-m/libc.a(lib_a-isattyr.o)
 .debug_info    0x000000000002f8fe      0x8cf /usr/lib/gcc/arm-none-eabi/6.3.1/../../../arm-none-eabi/lib/thumb/v6-m/libc.a(lib_a-iswspace.o)
 .debug_info    0x00000000000301cd      0x97c /usr/lib/gcc/arm-none-eabi/6.3.1/../../../arm-none-eabi/lib/thumb/v6-m/libc.a(lib_a-lseekr.o)
 .debug_info    0x0000000000030b49      0xb5b /usr/lib/gcc/arm-none-eabi/6.3.1/../../../arm-none-eabi/lib/thumb/v6-m/libc.a(lib_a-mbrtowc.o)
 .debug_info    0x00000000000316a4      0xacb /usr/lib/gcc/arm-none-eabi/6.3.1/../../../arm-none-eabi/lib/thumb/v6-m/libc.a(lib_a-mbtowc_r.o)
 .debug_info    0x000000000003216f      0x992 /usr/lib/gcc/arm-none-eabi/6.3.1/../../../arm-none-eabi/lib/thumb/v6-m/libc.a(lib_a-readr.o)
 .debug_info    0x0000000000032b01      0xae0 /usr/lib/gcc/arm-none-eabi/6.3.1/../../../arm-none-eabi/lib/thumb/v6-m/libc.a(lib_a-sccl.o)
 .debug_info    0x00000000000335e1      0x9b8 /usr/lib/gcc/arm-none-eabi/6.3.1/../../../arm-none-eabi/lib/thumb/v6-m/libc.a(lib_a-strtoull_r.o)
 .debug_info    0x0000000000033f99      0xb49 /usr/lib/gcc/arm-none-eabi/6.3.1/../../../arm-none-eabi/lib/thumb/v6-m/libc.a(lib_a-wcrtomb.o)
 .debug_info    0x0000000000034ae2      0xa92 /usr/lib/gcc/arm-none-eabi/6.3.1/../../../arm-none-eabi/lib/thumb/v6-m/libc.a(lib_a-wctomb_r.o)
 .debug_info    0x0000000000035574      0x8e1 /usr/lib/gcc/arm-none-eabi/6.3.1/../../../arm-none-eabi/lib/thumb/v6-m/libnosys.a(close.o)
 .debug_info    0x0000000000035e55      0xaed /usr/lib/gcc/arm-none-eabi/6.3.1/../../../arm-none-eabi/lib/thumb/v6-m/libnosys.a(fstat.o)
 .debug_info    0x0000000000036942      0x8d1 /usr/lib/gcc/arm-none-eabi/6.3.1/../../../arm-none-eabi/lib/thumb/v6-m/libnosys.a(getpid.o)
 .debug_info    0x0000000000037213      0x8e1 /usr/lib/gcc/arm-none-eabi/6.3.1/../../../arm-none-eabi/lib/thumb/v6-m/libnosys.a(isatty.o)
 .debug_info    0x0000000000037af4      0x8ee /usr/lib/gcc/arm-none-eabi/6.3.1/../../../arm-none-eabi/lib/thumb/v6-m/libnosys.a(kill.o)
 .debug_info    0x00000000000383e2      0x8fd /usr/lib/gcc/arm-none-eabi/6.3.1/../../../arm-none-eabi/lib/thumb/v6-m/libnosys.a(lseek.o)

.debug_abbrev   0x0000000000000000     0xaffc
 .debug_abbrev  0x0000000000000000       0x14 /usr/lib/gcc/arm-none-eabi/6.3.1/thumb/v6-m/libgcc.a(_dvmd_tls.o)
 .debug_abbrev  0x0000000000000014      0x1f3 /usr/lib/gcc/arm-none-eabi/6.3.1/../../../arm-none-eabi/lib/thumb/v6-m/libc.a(lib_a-atexit.o)
 .debug_abbrev  0x0000000000000207      0x1d9 /usr/lib/gcc/arm-none-eabi/6.3.1/../../../arm-none-eabi/lib/thumb/v6-m/libc.a(lib_a-atoi.o)
 .debug_abbrev  0x00000000000003e0      0x1d9 /usr/lib/gcc/arm-none-eabi/6.3.1/../../../arm-none-eabi/lib/thumb/v6-m/libc.a(lib_a-atoll.o)
 .debug_abbrev  0x00000000000005b9      0x1e8 /usr/lib/gcc/arm-none-eabi/6.3.1/../../../arm-none-eabi/lib/thumb/v6-m/libc.a(lib_a-calloc.o)
 .debug_abbrev  0x00000000000007a1      0x22c /usr/lib/gcc/arm-none-eabi/6.3.1/../../../arm-none-eabi/lib/thumb/v6-m/libc.a(lib_a-callocr.o)
 .debug_abbrev  0x00000000000009cd      0x1e6 /usr/lib/gcc/arm-none-eabi/6.3.1/../../../arm-none-eabi/lib/thumb/v6-m/libc.a(lib_a-ctime.o)
 .debug_abbrev  0x0000000000000bb3      0x189 /usr/lib/gcc/arm-none-eabi/6.3.1/../../../arm-none-eabi/lib/thumb/v6-m/libc.a(lib_a-impure.o)
 .debug_abbrev  0x0000000000000d3c      0x1f7 /usr/lib/gcc/arm-none-eabi/6.3.1/../../../arm-none-eabi/lib/thumb/v6-m/libc.a(lib_a-lcltime.o)
 .debug_abbrev  0x0000000000000f33      0x229 /usr/lib/gcc/arm-none-eabi/6.3.1/../../../arm-none-eabi/lib/thumb/v6-m/libc.a(lib_a-lcltime_r.o)
 .debug_abbrev  0x000000000000115c      0x1f3 /usr/lib/gcc/arm-none-eabi/6.3.1/../../../arm-none-eabi/lib/thumb/v6-m/libc.a(lib_a-malloc.o)
 .debug_abbrev  0x000000000000134f      0x2b9 /usr/lib/gcc/arm-none-eabi/6.3.1/../../../arm-none-eabi/lib/thumb/v6-m/libc.a(lib_a-mallocr.o)
 .debug_abbrev  0x0000000000001608      0x1ca /usr/lib/gcc/arm-none-eabi/6.3.1/../../../arm-none-eabi/lib/thumb/v6-m/libc.a(lib_a-mlock.o)
 .debug_abbrev  0x00000000000017d2      0x18f /usr/lib/gcc/arm-none-eabi/6.3.1/../../../arm-none-eabi/lib/thumb/v6-m/libc.a(lib_a-month_lengths.o)
 .debug_abbrev  0x0000000000001961      0x1e8 /usr/lib/gcc/arm-none-eabi/6.3.1/../../../arm-none-eabi/lib/thumb/v6-m/libc.a(lib_a-realloc.o)
 .debug_abbrev  0x0000000000001b49      0x250 /usr/lib/gcc/arm-none-eabi/6.3.1/../../../arm-none-eabi/lib/thumb/v6-m/libc.a(lib_a-reallocr.o)
 .debug_abbrev  0x0000000000001d99      0x20c /usr/lib/gcc/arm-none-eabi/6.3.1/../../../arm-none-eabi/lib/thumb/v6-m/libc.a(lib_a-sbrkr.o)
 .debug_abbrev  0x0000000000001fa5      0x2df /usr/lib/gcc/arm-none-eabi/6.3.1/../../../arm-none-eabi/lib/thumb/v6-m/libc.a(lib_a-signal.o)
 .debug_abbrev  0x0000000000002284      0x212 /usr/lib/gcc/arm-none-eabi/6.3.1/../../../arm-none-eabi/lib/thumb/v6-m/libc.a(lib_a-signalr.o)
 .debug_abbrev  0x0000000000002496       0x14 /usr/lib/gcc/arm-none-eabi/6.3.1/../../../arm-none-eabi/lib/thumb/v6-m/libc.a(lib_a-strcmp.o)
 .debug_abbrev  0x00000000000024aa      0x1af /usr/lib/gcc/arm-none-eabi/6.3.1/../../../arm-none-eabi/lib/thumb/v6-m/libc.a(lib_a-strlen-stub.o)
 .debug_abbrev  0x0000000000002659      0x1af /usr/lib/gcc/arm-none-eabi/6.3.1/../../../arm-none-eabi/lib/thumb/v6-m/libc.a(lib_a-strncmp.o)
 .debug_abbrev  0x0000000000002808      0x21d /usr/lib/gcc/arm-none-eabi/6.3.1/../../../arm-none-eabi/lib/thumb/v6-m/libc.a(lib_a-strtol.o)
 .debug_abbrev  0x0000000000002a25      0x1f4 /usr/lib/gcc/arm-none-eabi/6.3.1/../../../arm-none-eabi/lib/thumb/v6-m/libc.a(lib_a-strtoll.o)
 .debug_abbrev  0x0000000000002c19      0x1db /usr/lib/gcc/arm-none-eabi/6.3.1/../../../arm-none-eabi/lib/thumb/v6-m/libc.a(lib_a-strtoll_r.o)
 .debug_abbrev  0x0000000000002df4      0x201 /usr/lib/gcc/arm-none-eabi/6.3.1/../../../arm-none-eabi/lib/thumb/v6-m/libc.a(lib_a-tzcalc_limits.o)
 .debug_abbrev  0x0000000000002ff5      0x1c5 /usr/lib/gcc/arm-none-eabi/6.3.1/../../../arm-none-eabi/lib/thumb/v6-m/libc.a(lib_a-tzlock.o)
 .debug_abbrev  0x00000000000031ba      0x1bc /usr/lib/gcc/arm-none-eabi/6.3.1/../../../arm-none-eabi/lib/thumb/v6-m/libc.a(lib_a-tzset.o)
 .debug_abbrev  0x0000000000003376      0x245 /usr/lib/gcc/arm-none-eabi/6.3.1/../../../arm-none-eabi/lib/thumb/v6-m/libc.a(lib_a-tzset_r.o)
 .debug_abbrev  0x00000000000035bb      0x18b /usr/lib/gcc/arm-none-eabi/6.3.1/../../../arm-none-eabi/lib/thumb/v6-m/libc.a(lib_a-tzvars.o)
 .debug_abbrev  0x0000000000003746      0x3cd /usr/lib/gcc/arm-none-eabi/6.3.1/../../../arm-none-eabi/lib/thumb/v6-m/libc.a(lib_a-vfprintf.o)
 .debug_abbrev  0x0000000000003b13      0x26b /usr/lib/gcc/arm-none-eabi/6.3.1/../../../arm-none-eabi/lib/thumb/v6-m/libc.a(lib_a-wbuf.o)
 .debug_abbrev  0x0000000000003d7e      0x240 /usr/lib/gcc/arm-none-eabi/6.3.1/../../../arm-none-eabi/lib/thumb/v6-m/libc.a(lib_a-wsetup.o)
 .debug_abbrev  0x0000000000003fbe      0x220 /usr/lib/gcc/arm-none-eabi/6.3.1/../../../arm-none-eabi/lib/thumb/v6-m/libc.a(lib_a-__atexit.o)
 .debug_abbrev  0x00000000000041de      0x1f7 /usr/lib/gcc/arm-none-eabi/6.3.1/../../../arm-none-eabi/lib/thumb/v6-m/libc.a(lib_a-asctime.o)
 .debug_abbrev  0x00000000000043d5      0x1fe /usr/lib/gcc/arm-none-eabi/6.3.1/../../../arm-none-eabi/lib/thumb/v6-m/libc.a(lib_a-asctime_r.o)
 .debug_abbrev  0x00000000000045d3       0x5e /usr/lib/gcc/arm-none-eabi/6.3.1/../../../arm-none-eabi/lib/thumb/v6-m/libc.a(lib_a-ctype_.o)
 .debug_abbrev  0x0000000000004631      0x2f0 /usr/lib/gcc/arm-none-eabi/6.3.1/../../../arm-none-eabi/lib/thumb/v6-m/libc.a(lib_a-dtoa.o)
 .debug_abbrev  0x0000000000004921      0x2c1 /usr/lib/gcc/arm-none-eabi/6.3.1/../../../arm-none-eabi/lib/thumb/v6-m/libc.a(lib_a-fflush.o)
 .debug_abbrev  0x0000000000004be2      0x38f /usr/lib/gcc/arm-none-eabi/6.3.1/../../../arm-none-eabi/lib/thumb/v6-m/libc.a(lib_a-findfp.o)
 .debug_abbrev  0x0000000000004f71      0x26a /usr/lib/gcc/arm-none-eabi/6.3.1/../../../arm-none-eabi/lib/thumb/v6-m/libc.a(lib_a-freer.o)
 .debug_abbrev  0x00000000000051db      0x20a /usr/lib/gcc/arm-none-eabi/6.3.1/../../../arm-none-eabi/lib/thumb/v6-m/libc.a(lib_a-fwalk.o)
 .debug_abbrev  0x00000000000053e5      0x21e /usr/lib/gcc/arm-none-eabi/6.3.1/../../../arm-none-eabi/lib/thumb/v6-m/libc.a(lib_a-getenv_r.o)
 .debug_abbrev  0x0000000000005603      0x1af /usr/lib/gcc/arm-none-eabi/6.3.1/../../../arm-none-eabi/lib/thumb/v6-m/libc.a(lib_a-gettzinfo.o)
 .debug_abbrev  0x00000000000057b2      0x1f4 /usr/lib/gcc/arm-none-eabi/6.3.1/../../../arm-none-eabi/lib/thumb/v6-m/libc.a(lib_a-gmtime_r.o)
 .debug_abbrev  0x00000000000059a6      0x2ae /usr/lib/gcc/arm-none-eabi/6.3.1/../../../arm-none-eabi/lib/thumb/v6-m/libc.a(lib_a-locale.o)
 .debug_abbrev  0x0000000000005c54      0x2dd /usr/lib/gcc/arm-none-eabi/6.3.1/../../../arm-none-eabi/lib/thumb/v6-m/libc.a(lib_a-makebuf.o)
 .debug_abbrev  0x0000000000005f31      0x1d2 /usr/lib/gcc/arm-none-eabi/6.3.1/../../../arm-none-eabi/lib/thumb/v6-m/libc.a(lib_a-memchr-stub.o)
 .debug_abbrev  0x0000000000006103      0x1d2 /usr/lib/gcc/arm-none-eabi/6.3.1/../../../arm-none-eabi/lib/thumb/v6-m/libc.a(lib_a-memmove.o)
 .debug_abbrev  0x00000000000062d5      0x424 /usr/lib/gcc/arm-none-eabi/6.3.1/../../../arm-none-eabi/lib/thumb/v6-m/libc.a(lib_a-mprec.o)
 .debug_abbrev  0x00000000000066f9      0x25f /usr/lib/gcc/arm-none-eabi/6.3.1/../../../arm-none-eabi/lib/thumb/v6-m/libc.a(lib_a-reent.o)
 .debug_abbrev  0x0000000000006958      0x22a /usr/lib/gcc/arm-none-eabi/6.3.1/../../../arm-none-eabi/lib/thumb/v6-m/libc.a(lib_a-siprintf.o)
 .debug_abbrev  0x0000000000006b82      0x237 /usr/lib/gcc/arm-none-eabi/6.3.1/../../../arm-none-eabi/lib/thumb/v6-m/libc.a(lib_a-siscanf.o)
 .debug_abbrev  0x0000000000006db9      0x252 /usr/lib/gcc/arm-none-eabi/6.3.1/../../../arm-none-eabi/lib/thumb/v6-m/libc.a(lib_a-stdio.o)
 .debug_abbrev  0x000000000000700b      0x1ad /usr/lib/gcc/arm-none-eabi/6.3.1/../../../arm-none-eabi/lib/thumb/v6-m/libc.a(lib_a-strcpy.o)
 .debug_abbrev  0x00000000000071b8      0x21d /usr/lib/gcc/arm-none-eabi/6.3.1/../../../arm-none-eabi/lib/thumb/v6-m/libc.a(lib_a-strtoul.o)
 .debug_abbrev  0x00000000000073d5      0x2ed /usr/lib/gcc/arm-none-eabi/6.3.1/../../../arm-none-eabi/lib/thumb/v6-m/libc.a(lib_a-svfiprintf.o)
 .debug_abbrev  0x00000000000076c2      0x362 /usr/lib/gcc/arm-none-eabi/6.3.1/../../../arm-none-eabi/lib/thumb/v6-m/libc.a(lib_a-svfiscanf.o)
 .debug_abbrev  0x0000000000007a24      0x2e1 /usr/lib/gcc/arm-none-eabi/6.3.1/../../../arm-none-eabi/lib/thumb/v6-m/libc.a(lib_a-ungetc.o)
 .debug_abbrev  0x0000000000007d05      0x3d0 /usr/lib/gcc/arm-none-eabi/6.3.1/../../../arm-none-eabi/lib/thumb/v6-m/libc.a(lib_a-vfiprintf.o)
 .debug_abbrev  0x00000000000080d5      0x20c /usr/lib/gcc/arm-none-eabi/6.3.1/../../../arm-none-eabi/lib/thumb/v6-m/libc.a(lib_a-writer.o)
 .debug_abbrev  0x00000000000082e1      0x207 /usr/lib/gcc/arm-none-eabi/6.3.1/../../../arm-none-eabi/lib/thumb/v6-m/libc.a(lib_a-closer.o)
 .debug_abbrev  0x00000000000084e8       0x56 /usr/lib/gcc/arm-none-eabi/6.3.1/../../../arm-none-eabi/lib/thumb/v6-m/libc.a(lib_a-environ.o)
 .debug_abbrev  0x000000000000853e      0x1ce /usr/lib/gcc/arm-none-eabi/6.3.1/../../../arm-none-eabi/lib/thumb/v6-m/libc.a(lib_a-envlock.o)
 .debug_abbrev  0x000000000000870c      0x2b7 /usr/lib/gcc/arm-none-eabi/6.3.1/../../../arm-none-eabi/lib/thumb/v6-m/libc.a(lib_a-fclose.o)
 .debug_abbrev  0x00000000000089c3      0x301 /usr/lib/gcc/arm-none-eabi/6.3.1/../../../arm-none-eabi/lib/thumb/v6-m/libc.a(lib_a-fputwc.o)
 .debug_abbrev  0x0000000000008cc4      0x216 /usr/lib/gcc/arm-none-eabi/6.3.1/../../../arm-none-eabi/lib/thumb/v6-m/libc.a(lib_a-fstatr.o)
 .debug_abbrev  0x0000000000008eda      0x264 /usr/lib/gcc/arm-none-eabi/6.3.1/../../../arm-none-eabi/lib/thumb/v6-m/libc.a(lib_a-fvwrite.o)
 .debug_abbrev  0x000000000000913e      0x207 /usr/lib/gcc/arm-none-eabi/6.3.1/../../../arm-none-eabi/lib/thumb/v6-m/libc.a(lib_a-isattyr.o)
 .debug_abbrev  0x0000000000009345      0x1b4 /usr/lib/gcc/arm-none-eabi/6.3.1/../../../arm-none-eabi/lib/thumb/v6-m/libc.a(lib_a-iswspace.o)
 .debug_abbrev  0x00000000000094f9      0x216 /usr/lib/gcc/arm-none-eabi/6.3.1/../../../arm-none-eabi/lib/thumb/v6-m/libc.a(lib_a-lseekr.o)
 .debug_abbrev  0x000000000000970f      0x21d /usr/lib/gcc/arm-none-eabi/6.3.1/../../../arm-none-eabi/lib/thumb/v6-m/libc.a(lib_a-mbrtowc.o)
 .debug_abbrev  0x000000000000992c      0x249 /usr/lib/gcc/arm-none-eabi/6.3.1/../../../arm-none-eabi/lib/thumb/v6-m/libc.a(lib_a-mbtowc_r.o)
 .debug_abbrev  0x0000000000009b75      0x207 /usr/lib/gcc/arm-none-eabi/6.3.1/../../../arm-none-eabi/lib/thumb/v6-m/libc.a(lib_a-readr.o)
 .debug_abbrev  0x0000000000009d7c      0x1ee /usr/lib/gcc/arm-none-eabi/6.3.1/../../../arm-none-eabi/lib/thumb/v6-m/libc.a(lib_a-sccl.o)
 .debug_abbrev  0x0000000000009f6a      0x1db /usr/lib/gcc/arm-none-eabi/6.3.1/../../../arm-none-eabi/lib/thumb/v6-m/libc.a(lib_a-strtoull_r.o)
 .debug_abbrev  0x000000000000a145      0x21d /usr/lib/gcc/arm-none-eabi/6.3.1/../../../arm-none-eabi/lib/thumb/v6-m/libc.a(lib_a-wcrtomb.o)
 .debug_abbrev  0x000000000000a362      0x233 /usr/lib/gcc/arm-none-eabi/6.3.1/../../../arm-none-eabi/lib/thumb/v6-m/libc.a(lib_a-wctomb_r.o)
 .debug_abbrev  0x000000000000a595      0x1b4 /usr/lib/gcc/arm-none-eabi/6.3.1/../../../arm-none-eabi/lib/thumb/v6-m/libnosys.a(close.o)
 .debug_abbrev  0x000000000000a749      0x1c5 /usr/lib/gcc/arm-none-eabi/6.3.1/../../../arm-none-eabi/lib/thumb/v6-m/libnosys.a(fstat.o)
 .debug_abbrev  0x000000000000a90e      0x1a5 /usr/lib/gcc/arm-none-eabi/6.3.1/../../../arm-none-eabi/lib/thumb/v6-m/libnosys.a(getpid.o)
 .debug_abbrev  0x000000000000aab3      0x1b4 /usr/lib/gcc/arm-none-eabi/6.3.1/../../../arm-none-eabi/lib/thumb/v6-m/libnosys.a(isatty.o)
 .debug_abbrev  0x000000000000ac67      0x1c3 /usr/lib/gcc/arm-none-eabi/6.3.1/../../../arm-none-eabi/lib/thumb/v6-m/libnosys.a(kill.o)
 .debug_abbrev  0x000000000000ae2a      0x1d2 /usr/lib/gcc/arm-none-eabi/6.3.1/../../../arm-none-eabi/lib/thumb/v6-m/libnosys.a(lseek.o)

.debug_aranges  0x0000000000000000      0xa58
 .debug_aranges
                0x0000000000000000       0x20 /usr/lib/gcc/arm-none-eabi/6.3.1/thumb/v6-m/libgcc.a(_dvmd_tls.o)
 .debug_aranges
                0x0000000000000020       0x20 /usr/lib/gcc/arm-none-eabi/6.3.1/../../../arm-none-eabi/lib/thumb/v6-m/libc.a(lib_a-atexit.o)
 .debug_aranges
                0x0000000000000040       0x20 /usr/lib/gcc/arm-none-eabi/6.3.1/../../../arm-none-eabi/lib/thumb/v6-m/libc.a(lib_a-atoi.o)
 .debug_aranges
                0x0000000000000060       0x20 /usr/lib/gcc/arm-none-eabi/6.3.1/../../../arm-none-eabi/lib/thumb/v6-m/libc.a(lib_a-atoll.o)
 .debug_aranges
                0x0000000000000080       0x20 /usr/lib/gcc/arm-none-eabi/6.3.1/../../../arm-none-eabi/lib/thumb/v6-m/libc.a(lib_a-calloc.o)
 .debug_aranges
                0x00000000000000a0       0x20 /usr/lib/gcc/arm-none-eabi/6.3.1/../../../arm-none-eabi/lib/thumb/v6-m/libc.a(lib_a-callocr.o)
 .debug_aranges
                0x00000000000000c0       0x20 /usr/lib/gcc/arm-none-eabi/6.3.1/../../../arm-none-eabi/lib/thumb/v6-m/libc.a(lib_a-ctime.o)
 .debug_aranges
                0x00000000000000e0       0x18 /usr/lib/gcc/arm-none-eabi/6.3.1/../../../arm-none-eabi/lib/thumb/v6-m/libc.a(lib_a-impure.o)
 .debug_aranges
                0x00000000000000f8       0x20 /usr/lib/gcc/arm-none-eabi/6.3.1/../../../arm-none-eabi/lib/thumb/v6-m/libc.a(lib_a-lcltime.o)
 .debug_aranges
                0x0000000000000118       0x20 /usr/lib/gcc/arm-none-eabi/6.3.1/../../../arm-none-eabi/lib/thumb/v6-m/libc.a(lib_a-lcltime_r.o)
 .debug_aranges
                0x0000000000000138       0x20 /usr/lib/gcc/arm-none-eabi/6.3.1/../../../arm-none-eabi/lib/thumb/v6-m/libc.a(lib_a-malloc.o)
 .debug_aranges
                0x0000000000000158       0x20 /usr/lib/gcc/arm-none-eabi/6.3.1/../../../arm-none-eabi/lib/thumb/v6-m/libc.a(lib_a-mallocr.o)
 .debug_aranges
                0x0000000000000178       0x20 /usr/lib/gcc/arm-none-eabi/6.3.1/../../../arm-none-eabi/lib/thumb/v6-m/libc.a(lib_a-mlock.o)
 .debug_aranges
                0x0000000000000198       0x18 /usr/lib/gcc/arm-none-eabi/6.3.1/../../../arm-none-eabi/lib/thumb/v6-m/libc.a(lib_a-month_lengths.o)
 .debug_aranges
                0x00000000000001b0       0x20 /usr/lib/gcc/arm-none-eabi/6.3.1/../../../arm-none-eabi/lib/thumb/v6-m/libc.a(lib_a-realloc.o)
 .debug_aranges
                0x00000000000001d0       0x20 /usr/lib/gcc/arm-none-eabi/6.3.1/../../../arm-none-eabi/lib/thumb/v6-m/libc.a(lib_a-reallocr.o)
 .debug_aranges
                0x00000000000001f0       0x20 /usr/lib/gcc/arm-none-eabi/6.3.1/../../../arm-none-eabi/lib/thumb/v6-m/libc.a(lib_a-sbrkr.o)
 .debug_aranges
                0x0000000000000210       0x20 /usr/lib/gcc/arm-none-eabi/6.3.1/../../../arm-none-eabi/lib/thumb/v6-m/libc.a(lib_a-signal.o)
 .debug_aranges
                0x0000000000000230       0x20 /usr/lib/gcc/arm-none-eabi/6.3.1/../../../arm-none-eabi/lib/thumb/v6-m/libc.a(lib_a-signalr.o)
 .debug_aranges
                0x0000000000000250       0x20 /usr/lib/gcc/arm-none-eabi/6.3.1/../../../arm-none-eabi/lib/thumb/v6-m/libc.a(lib_a-strcmp.o)
 .debug_aranges
                0x0000000000000270       0x20 /usr/lib/gcc/arm-none-eabi/6.3.1/../../../arm-none-eabi/lib/thumb/v6-m/libc.a(lib_a-strlen-stub.o)
 .debug_aranges
                0x0000000000000290       0x20 /usr/lib/gcc/arm-none-eabi/6.3.1/../../../arm-none-eabi/lib/thumb/v6-m/libc.a(lib_a-strncmp.o)
 .debug_aranges
                0x00000000000002b0       0x20 /usr/lib/gcc/arm-none-eabi/6.3.1/../../../arm-none-eabi/lib/thumb/v6-m/libc.a(lib_a-strtol.o)
 .debug_aranges
                0x00000000000002d0       0x20 /usr/lib/gcc/arm-none-eabi/6.3.1/../../../arm-none-eabi/lib/thumb/v6-m/libc.a(lib_a-strtoll.o)
 .debug_aranges
                0x00000000000002f0       0x20 /usr/lib/gcc/arm-none-eabi/6.3.1/../../../arm-none-eabi/lib/thumb/v6-m/libc.a(lib_a-strtoll_r.o)
 .debug_aranges
                0x0000000000000310       0x20 /usr/lib/gcc/arm-none-eabi/6.3.1/../../../arm-none-eabi/lib/thumb/v6-m/libc.a(lib_a-tzcalc_limits.o)
 .debug_aranges
                0x0000000000000330       0x20 /usr/lib/gcc/arm-none-eabi/6.3.1/../../../arm-none-eabi/lib/thumb/v6-m/libc.a(lib_a-tzlock.o)
 .debug_aranges
                0x0000000000000350       0x20 /usr/lib/gcc/arm-none-eabi/6.3.1/../../../arm-none-eabi/lib/thumb/v6-m/libc.a(lib_a-tzset.o)
 .debug_aranges
                0x0000000000000370       0x20 /usr/lib/gcc/arm-none-eabi/6.3.1/../../../arm-none-eabi/lib/thumb/v6-m/libc.a(lib_a-tzset_r.o)
 .debug_aranges
                0x0000000000000390       0x18 /usr/lib/gcc/arm-none-eabi/6.3.1/../../../arm-none-eabi/lib/thumb/v6-m/libc.a(lib_a-tzvars.o)
 .debug_aranges
                0x00000000000003a8       0x20 /usr/lib/gcc/arm-none-eabi/6.3.1/../../../arm-none-eabi/lib/thumb/v6-m/libc.a(lib_a-vfprintf.o)
 .debug_aranges
                0x00000000000003c8       0x20 /usr/lib/gcc/arm-none-eabi/6.3.1/../../../arm-none-eabi/lib/thumb/v6-m/libc.a(lib_a-wbuf.o)
 .debug_aranges
                0x00000000000003e8       0x20 /usr/lib/gcc/arm-none-eabi/6.3.1/../../../arm-none-eabi/lib/thumb/v6-m/libc.a(lib_a-wsetup.o)
 .debug_aranges
                0x0000000000000408       0x20 /usr/lib/gcc/arm-none-eabi/6.3.1/../../../arm-none-eabi/lib/thumb/v6-m/libc.a(lib_a-__atexit.o)
 .debug_aranges
                0x0000000000000428       0x20 /usr/lib/gcc/arm-none-eabi/6.3.1/../../../arm-none-eabi/lib/thumb/v6-m/libc.a(lib_a-asctime.o)
 .debug_aranges
                0x0000000000000448       0x20 /usr/lib/gcc/arm-none-eabi/6.3.1/../../../arm-none-eabi/lib/thumb/v6-m/libc.a(lib_a-asctime_r.o)
 .debug_aranges
                0x0000000000000468       0x18 /usr/lib/gcc/arm-none-eabi/6.3.1/../../../arm-none-eabi/lib/thumb/v6-m/libc.a(lib_a-ctype_.o)
 .debug_aranges
                0x0000000000000480       0x20 /usr/lib/gcc/arm-none-eabi/6.3.1/../../../arm-none-eabi/lib/thumb/v6-m/libc.a(lib_a-dtoa.o)
 .debug_aranges
                0x00000000000004a0       0x20 /usr/lib/gcc/arm-none-eabi/6.3.1/../../../arm-none-eabi/lib/thumb/v6-m/libc.a(lib_a-fflush.o)
 .debug_aranges
                0x00000000000004c0       0x20 /usr/lib/gcc/arm-none-eabi/6.3.1/../../../arm-none-eabi/lib/thumb/v6-m/libc.a(lib_a-findfp.o)
 .debug_aranges
                0x00000000000004e0       0x20 /usr/lib/gcc/arm-none-eabi/6.3.1/../../../arm-none-eabi/lib/thumb/v6-m/libc.a(lib_a-freer.o)
 .debug_aranges
                0x0000000000000500       0x20 /usr/lib/gcc/arm-none-eabi/6.3.1/../../../arm-none-eabi/lib/thumb/v6-m/libc.a(lib_a-fwalk.o)
 .debug_aranges
                0x0000000000000520       0x20 /usr/lib/gcc/arm-none-eabi/6.3.1/../../../arm-none-eabi/lib/thumb/v6-m/libc.a(lib_a-getenv_r.o)
 .debug_aranges
                0x0000000000000540       0x20 /usr/lib/gcc/arm-none-eabi/6.3.1/../../../arm-none-eabi/lib/thumb/v6-m/libc.a(lib_a-gettzinfo.o)
 .debug_aranges
                0x0000000000000560       0x20 /usr/lib/gcc/arm-none-eabi/6.3.1/../../../arm-none-eabi/lib/thumb/v6-m/libc.a(lib_a-gmtime_r.o)
 .debug_aranges
                0x0000000000000580       0x20 /usr/lib/gcc/arm-none-eabi/6.3.1/../../../arm-none-eabi/lib/thumb/v6-m/libc.a(lib_a-locale.o)
 .debug_aranges
                0x00000000000005a0       0x20 /usr/lib/gcc/arm-none-eabi/6.3.1/../../../arm-none-eabi/lib/thumb/v6-m/libc.a(lib_a-makebuf.o)
 .debug_aranges
                0x00000000000005c0       0x20 /usr/lib/gcc/arm-none-eabi/6.3.1/../../../arm-none-eabi/lib/thumb/v6-m/libc.a(lib_a-memchr-stub.o)
 .debug_aranges
                0x00000000000005e0       0x20 /usr/lib/gcc/arm-none-eabi/6.3.1/../../../arm-none-eabi/lib/thumb/v6-m/libc.a(lib_a-memmove.o)
 .debug_aranges
                0x0000000000000600       0x20 /usr/lib/gcc/arm-none-eabi/6.3.1/../../../arm-none-eabi/lib/thumb/v6-m/libc.a(lib_a-mprec.o)
 .debug_aranges
                0x0000000000000620       0x20 /usr/lib/gcc/arm-none-eabi/6.3.1/../../../arm-none-eabi/lib/thumb/v6-m/libc.a(lib_a-reent.o)
 .debug_aranges
                0x0000000000000640       0x20 /usr/lib/gcc/arm-none-eabi/6.3.1/../../../arm-none-eabi/lib/thumb/v6-m/libc.a(lib_a-siprintf.o)
 .debug_aranges
                0x0000000000000660       0x20 /usr/lib/gcc/arm-none-eabi/6.3.1/../../../arm-none-eabi/lib/thumb/v6-m/libc.a(lib_a-siscanf.o)
 .debug_aranges
                0x0000000000000680       0x20 /usr/lib/gcc/arm-none-eabi/6.3.1/../../../arm-none-eabi/lib/thumb/v6-m/libc.a(lib_a-stdio.o)
 .debug_aranges
                0x00000000000006a0       0x20 /usr/lib/gcc/arm-none-eabi/6.3.1/../../../arm-none-eabi/lib/thumb/v6-m/libc.a(lib_a-strcpy.o)
 .debug_aranges
                0x00000000000006c0       0x20 /usr/lib/gcc/arm-none-eabi/6.3.1/../../../arm-none-eabi/lib/thumb/v6-m/libc.a(lib_a-strtoul.o)
 .debug_aranges
                0x00000000000006e0       0x20 /usr/lib/gcc/arm-none-eabi/6.3.1/../../../arm-none-eabi/lib/thumb/v6-m/libc.a(lib_a-svfiprintf.o)
 .debug_aranges
                0x0000000000000700       0x20 /usr/lib/gcc/arm-none-eabi/6.3.1/../../../arm-none-eabi/lib/thumb/v6-m/libc.a(lib_a-svfiscanf.o)
 .debug_aranges
                0x0000000000000720       0x20 /usr/lib/gcc/arm-none-eabi/6.3.1/../../../arm-none-eabi/lib/thumb/v6-m/libc.a(lib_a-ungetc.o)
 .debug_aranges
                0x0000000000000740       0x20 /usr/lib/gcc/arm-none-eabi/6.3.1/../../../arm-none-eabi/lib/thumb/v6-m/libc.a(lib_a-vfiprintf.o)
 .debug_aranges
                0x0000000000000760       0x20 /usr/lib/gcc/arm-none-eabi/6.3.1/../../../arm-none-eabi/lib/thumb/v6-m/libc.a(lib_a-writer.o)
 .debug_aranges
                0x0000000000000780       0x20 /usr/lib/gcc/arm-none-eabi/6.3.1/../../../arm-none-eabi/lib/thumb/v6-m/libc.a(lib_a-closer.o)
 .debug_aranges
                0x00000000000007a0       0x18 /usr/lib/gcc/arm-none-eabi/6.3.1/../../../arm-none-eabi/lib/thumb/v6-m/libc.a(lib_a-environ.o)
 .debug_aranges
                0x00000000000007b8       0x20 /usr/lib/gcc/arm-none-eabi/6.3.1/../../../arm-none-eabi/lib/thumb/v6-m/libc.a(lib_a-envlock.o)
 .debug_aranges
                0x00000000000007d8       0x20 /usr/lib/gcc/arm-none-eabi/6.3.1/../../../arm-none-eabi/lib/thumb/v6-m/libc.a(lib_a-fclose.o)
 .debug_aranges
                0x00000000000007f8       0x20 /usr/lib/gcc/arm-none-eabi/6.3.1/../../../arm-none-eabi/lib/thumb/v6-m/libc.a(lib_a-fputwc.o)
 .debug_aranges
                0x0000000000000818       0x20 /usr/lib/gcc/arm-none-eabi/6.3.1/../../../arm-none-eabi/lib/thumb/v6-m/libc.a(lib_a-fstatr.o)
 .debug_aranges
                0x0000000000000838       0x20 /usr/lib/gcc/arm-none-eabi/6.3.1/../../../arm-none-eabi/lib/thumb/v6-m/libc.a(lib_a-fvwrite.o)
 .debug_aranges
                0x0000000000000858       0x20 /usr/lib/gcc/arm-none-eabi/6.3.1/../../../arm-none-eabi/lib/thumb/v6-m/libc.a(lib_a-isattyr.o)
 .debug_aranges
                0x0000000000000878       0x20 /usr/lib/gcc/arm-none-eabi/6.3.1/../../../arm-none-eabi/lib/thumb/v6-m/libc.a(lib_a-iswspace.o)
 .debug_aranges
                0x0000000000000898       0x20 /usr/lib/gcc/arm-none-eabi/6.3.1/../../../arm-none-eabi/lib/thumb/v6-m/libc.a(lib_a-lseekr.o)
 .debug_aranges
                0x00000000000008b8       0x20 /usr/lib/gcc/arm-none-eabi/6.3.1/../../../arm-none-eabi/lib/thumb/v6-m/libc.a(lib_a-mbrtowc.o)
 .debug_aranges
                0x00000000000008d8       0x20 /usr/lib/gcc/arm-none-eabi/6.3.1/../../../arm-none-eabi/lib/thumb/v6-m/libc.a(lib_a-mbtowc_r.o)
 .debug_aranges
                0x00000000000008f8       0x20 /usr/lib/gcc/arm-none-eabi/6.3.1/../../../arm-none-eabi/lib/thumb/v6-m/libc.a(lib_a-readr.o)
 .debug_aranges
                0x0000000000000918       0x20 /usr/lib/gcc/arm-none-eabi/6.3.1/../../../arm-none-eabi/lib/thumb/v6-m/libc.a(lib_a-sccl.o)
 .debug_aranges
                0x0000000000000938       0x20 /usr/lib/gcc/arm-none-eabi/6.3.1/../../../arm-none-eabi/lib/thumb/v6-m/libc.a(lib_a-strtoull_r.o)
 .debug_aranges
                0x0000000000000958       0x20 /usr/lib/gcc/arm-none-eabi/6.3.1/../../../arm-none-eabi/lib/thumb/v6-m/libc.a(lib_a-wcrtomb.o)
 .debug_aranges
                0x0000000000000978       0x20 /usr/lib/gcc/arm-none-eabi/6.3.1/../../../arm-none-eabi/lib/thumb/v6-m/libc.a(lib_a-wctomb_r.o)
 .debug_aranges
                0x0000000000000998       0x20 /usr/lib/gcc/arm-none-eabi/6.3.1/../../../arm-none-eabi/lib/thumb/v6-m/libnosys.a(close.o)
 .debug_aranges
                0x00000000000009b8       0x20 /usr/lib/gcc/arm-none-eabi/6.3.1/../../../arm-none-eabi/lib/thumb/v6-m/libnosys.a(fstat.o)
 .debug_aranges
                0x00000000000009d8       0x20 /usr/lib/gcc/arm-none-eabi/6.3.1/../../../arm-none-eabi/lib/thumb/v6-m/libnosys.a(getpid.o)
 .debug_aranges
                0x00000000000009f8       0x20 /usr/lib/gcc/arm-none-eabi/6.3.1/../../../arm-none-eabi/lib/thumb/v6-m/libnosys.a(isatty.o)
 .debug_aranges
                0x0000000000000a18       0x20 /usr/lib/gcc/arm-none-eabi/6.3.1/../../../arm-none-eabi/lib/thumb/v6-m/libnosys.a(kill.o)
 .debug_aranges
                0x0000000000000a38       0x20 /usr/lib/gcc/arm-none-eabi/6.3.1/../../../arm-none-eabi/lib/thumb/v6-m/libnosys.a(lseek.o)

.debug_loc      0x0000000000000000    0x1508c
 .debug_loc     0x0000000000000000       0x2c /usr/lib/gcc/arm-none-eabi/6.3.1/../../../arm-none-eabi/lib/thumb/v6-m/libc.a(lib_a-atexit.o)
 .debug_loc     0x000000000000002c       0x63 /usr/lib/gcc/arm-none-eabi/6.3.1/../../../arm-none-eabi/lib/thumb/v6-m/libc.a(lib_a-atoi.o)
 .debug_loc     0x000000000000008f       0x63 /usr/lib/gcc/arm-none-eabi/6.3.1/../../../arm-none-eabi/lib/thumb/v6-m/libc.a(lib_a-atoll.o)
 .debug_loc     0x00000000000000f2       0x58 /usr/lib/gcc/arm-none-eabi/6.3.1/../../../arm-none-eabi/lib/thumb/v6-m/libc.a(lib_a-calloc.o)
 .debug_loc     0x000000000000014a      0x226 /usr/lib/gcc/arm-none-eabi/6.3.1/../../../arm-none-eabi/lib/thumb/v6-m/libc.a(lib_a-callocr.o)
 .debug_loc     0x0000000000000370       0x21 /usr/lib/gcc/arm-none-eabi/6.3.1/../../../arm-none-eabi/lib/thumb/v6-m/libc.a(lib_a-ctime.o)
 .debug_loc     0x0000000000000391       0x35 /usr/lib/gcc/arm-none-eabi/6.3.1/../../../arm-none-eabi/lib/thumb/v6-m/libc.a(lib_a-lcltime.o)
 .debug_loc     0x00000000000003c6      0x232 /usr/lib/gcc/arm-none-eabi/6.3.1/../../../arm-none-eabi/lib/thumb/v6-m/libc.a(lib_a-lcltime_r.o)
 .debug_loc     0x00000000000005f8       0x58 /usr/lib/gcc/arm-none-eabi/6.3.1/../../../arm-none-eabi/lib/thumb/v6-m/libc.a(lib_a-malloc.o)
 .debug_loc     0x0000000000000650      0xc9b /usr/lib/gcc/arm-none-eabi/6.3.1/../../../arm-none-eabi/lib/thumb/v6-m/libc.a(lib_a-mallocr.o)
 .debug_loc     0x00000000000012eb       0x58 /usr/lib/gcc/arm-none-eabi/6.3.1/../../../arm-none-eabi/lib/thumb/v6-m/libc.a(lib_a-realloc.o)
 .debug_loc     0x0000000000001343      0xf21 /usr/lib/gcc/arm-none-eabi/6.3.1/../../../arm-none-eabi/lib/thumb/v6-m/libc.a(lib_a-reallocr.o)
 .debug_loc     0x0000000000002264       0x58 /usr/lib/gcc/arm-none-eabi/6.3.1/../../../arm-none-eabi/lib/thumb/v6-m/libc.a(lib_a-sbrkr.o)
 .debug_loc     0x00000000000022bc      0x458 /usr/lib/gcc/arm-none-eabi/6.3.1/../../../arm-none-eabi/lib/thumb/v6-m/libc.a(lib_a-signal.o)
 .debug_loc     0x0000000000002714       0xa5 /usr/lib/gcc/arm-none-eabi/6.3.1/../../../arm-none-eabi/lib/thumb/v6-m/libc.a(lib_a-signalr.o)
 .debug_loc     0x00000000000027b9       0xbe /usr/lib/gcc/arm-none-eabi/6.3.1/../../../arm-none-eabi/lib/thumb/v6-m/libc.a(lib_a-strlen-stub.o)
 .debug_loc     0x0000000000002877      0x178 /usr/lib/gcc/arm-none-eabi/6.3.1/../../../arm-none-eabi/lib/thumb/v6-m/libc.a(lib_a-strncmp.o)
 .debug_loc     0x00000000000029ef      0x49d /usr/lib/gcc/arm-none-eabi/6.3.1/../../../arm-none-eabi/lib/thumb/v6-m/libc.a(lib_a-strtol.o)
 .debug_loc     0x0000000000002e8c       0x84 /usr/lib/gcc/arm-none-eabi/6.3.1/../../../arm-none-eabi/lib/thumb/v6-m/libc.a(lib_a-strtoll.o)
 .debug_loc     0x0000000000002f10      0x44c /usr/lib/gcc/arm-none-eabi/6.3.1/../../../arm-none-eabi/lib/thumb/v6-m/libc.a(lib_a-strtoll_r.o)
 .debug_loc     0x000000000000335c      0x1cc /usr/lib/gcc/arm-none-eabi/6.3.1/../../../arm-none-eabi/lib/thumb/v6-m/libc.a(lib_a-tzcalc_limits.o)
 .debug_loc     0x0000000000003528      0x260 /usr/lib/gcc/arm-none-eabi/6.3.1/../../../arm-none-eabi/lib/thumb/v6-m/libc.a(lib_a-tzset_r.o)
 .debug_loc     0x0000000000003788     0x3855 /usr/lib/gcc/arm-none-eabi/6.3.1/../../../arm-none-eabi/lib/thumb/v6-m/libc.a(lib_a-vfprintf.o)
 .debug_loc     0x0000000000006fdd      0x1a7 /usr/lib/gcc/arm-none-eabi/6.3.1/../../../arm-none-eabi/lib/thumb/v6-m/libc.a(lib_a-wbuf.o)
 .debug_loc     0x0000000000007184       0xa2 /usr/lib/gcc/arm-none-eabi/6.3.1/../../../arm-none-eabi/lib/thumb/v6-m/libc.a(lib_a-wsetup.o)
 .debug_loc     0x0000000000007226      0x1c5 /usr/lib/gcc/arm-none-eabi/6.3.1/../../../arm-none-eabi/lib/thumb/v6-m/libc.a(lib_a-__atexit.o)
 .debug_loc     0x00000000000073eb       0x35 /usr/lib/gcc/arm-none-eabi/6.3.1/../../../arm-none-eabi/lib/thumb/v6-m/libc.a(lib_a-asctime.o)
 .debug_loc     0x0000000000007420       0x4a /usr/lib/gcc/arm-none-eabi/6.3.1/../../../arm-none-eabi/lib/thumb/v6-m/libc.a(lib_a-asctime_r.o)
 .debug_loc     0x000000000000746a     0x2de0 /usr/lib/gcc/arm-none-eabi/6.3.1/../../../arm-none-eabi/lib/thumb/v6-m/libc.a(lib_a-dtoa.o)
 .debug_loc     0x000000000000a24a      0x2ec /usr/lib/gcc/arm-none-eabi/6.3.1/../../../arm-none-eabi/lib/thumb/v6-m/libc.a(lib_a-fflush.o)
 .debug_loc     0x000000000000a536      0x323 /usr/lib/gcc/arm-none-eabi/6.3.1/../../../arm-none-eabi/lib/thumb/v6-m/libc.a(lib_a-findfp.o)
 .debug_loc     0x000000000000a859      0x4e6 /usr/lib/gcc/arm-none-eabi/6.3.1/../../../arm-none-eabi/lib/thumb/v6-m/libc.a(lib_a-freer.o)
 .debug_loc     0x000000000000ad3f      0x19f /usr/lib/gcc/arm-none-eabi/6.3.1/../../../arm-none-eabi/lib/thumb/v6-m/libc.a(lib_a-fwalk.o)
 .debug_loc     0x000000000000aede      0x144 /usr/lib/gcc/arm-none-eabi/6.3.1/../../../arm-none-eabi/lib/thumb/v6-m/libc.a(lib_a-getenv_r.o)
 .debug_loc     0x000000000000b022      0x25f /usr/lib/gcc/arm-none-eabi/6.3.1/../../../arm-none-eabi/lib/thumb/v6-m/libc.a(lib_a-gmtime_r.o)
 .debug_loc     0x000000000000b281      0x152 /usr/lib/gcc/arm-none-eabi/6.3.1/../../../arm-none-eabi/lib/thumb/v6-m/libc.a(lib_a-locale.o)
 .debug_loc     0x000000000000b3d3      0x19d /usr/lib/gcc/arm-none-eabi/6.3.1/../../../arm-none-eabi/lib/thumb/v6-m/libc.a(lib_a-makebuf.o)
 .debug_loc     0x000000000000b570      0x172 /usr/lib/gcc/arm-none-eabi/6.3.1/../../../arm-none-eabi/lib/thumb/v6-m/libc.a(lib_a-memchr-stub.o)
 .debug_loc     0x000000000000b6e2      0x3b3 /usr/lib/gcc/arm-none-eabi/6.3.1/../../../arm-none-eabi/lib/thumb/v6-m/libc.a(lib_a-memmove.o)
 .debug_loc     0x000000000000ba95     0x1dc4 /usr/lib/gcc/arm-none-eabi/6.3.1/../../../arm-none-eabi/lib/thumb/v6-m/libc.a(lib_a-mprec.o)
 .debug_loc     0x000000000000d859       0xfc /usr/lib/gcc/arm-none-eabi/6.3.1/../../../arm-none-eabi/lib/thumb/v6-m/libc.a(lib_a-reent.o)
 .debug_loc     0x000000000000d955       0x88 /usr/lib/gcc/arm-none-eabi/6.3.1/../../../arm-none-eabi/lib/thumb/v6-m/libc.a(lib_a-siprintf.o)
 .debug_loc     0x000000000000d9dd       0x6e /usr/lib/gcc/arm-none-eabi/6.3.1/../../../arm-none-eabi/lib/thumb/v6-m/libc.a(lib_a-siscanf.o)
 .debug_loc     0x000000000000da4b      0x302 /usr/lib/gcc/arm-none-eabi/6.3.1/../../../arm-none-eabi/lib/thumb/v6-m/libc.a(lib_a-stdio.o)
 .debug_loc     0x000000000000dd4d       0x21 /usr/lib/gcc/arm-none-eabi/6.3.1/../../../arm-none-eabi/lib/thumb/v6-m/libc.a(lib_a-strcpy.o)
 .debug_loc     0x000000000000dd6e      0x405 /usr/lib/gcc/arm-none-eabi/6.3.1/../../../arm-none-eabi/lib/thumb/v6-m/libc.a(lib_a-strtoul.o)
 .debug_loc     0x000000000000e173     0x1a79 /usr/lib/gcc/arm-none-eabi/6.3.1/../../../arm-none-eabi/lib/thumb/v6-m/libc.a(lib_a-svfiprintf.o)
 .debug_loc     0x000000000000fbec     0x14b8 /usr/lib/gcc/arm-none-eabi/6.3.1/../../../arm-none-eabi/lib/thumb/v6-m/libc.a(lib_a-svfiscanf.o)
 .debug_loc     0x00000000000110a4      0x25c /usr/lib/gcc/arm-none-eabi/6.3.1/../../../arm-none-eabi/lib/thumb/v6-m/libc.a(lib_a-ungetc.o)
 .debug_loc     0x0000000000011300     0x21fd /usr/lib/gcc/arm-none-eabi/6.3.1/../../../arm-none-eabi/lib/thumb/v6-m/libc.a(lib_a-vfiprintf.o)
 .debug_loc     0x00000000000134fd       0xb0 /usr/lib/gcc/arm-none-eabi/6.3.1/../../../arm-none-eabi/lib/thumb/v6-m/libc.a(lib_a-writer.o)
 .debug_loc     0x00000000000135ad       0x58 /usr/lib/gcc/arm-none-eabi/6.3.1/../../../arm-none-eabi/lib/thumb/v6-m/libc.a(lib_a-closer.o)
 .debug_loc     0x0000000000013605      0x175 /usr/lib/gcc/arm-none-eabi/6.3.1/../../../arm-none-eabi/lib/thumb/v6-m/libc.a(lib_a-fclose.o)
 .debug_loc     0x000000000001377a      0x2b2 /usr/lib/gcc/arm-none-eabi/6.3.1/../../../arm-none-eabi/lib/thumb/v6-m/libc.a(lib_a-fputwc.o)
 .debug_loc     0x0000000000013a2c       0x84 /usr/lib/gcc/arm-none-eabi/6.3.1/../../../arm-none-eabi/lib/thumb/v6-m/libc.a(lib_a-fstatr.o)
 .debug_loc     0x0000000000013ab0      0x60f /usr/lib/gcc/arm-none-eabi/6.3.1/../../../arm-none-eabi/lib/thumb/v6-m/libc.a(lib_a-fvwrite.o)
 .debug_loc     0x00000000000140bf       0x58 /usr/lib/gcc/arm-none-eabi/6.3.1/../../../arm-none-eabi/lib/thumb/v6-m/libc.a(lib_a-isattyr.o)
 .debug_loc     0x0000000000014117       0x2c /usr/lib/gcc/arm-none-eabi/6.3.1/../../../arm-none-eabi/lib/thumb/v6-m/libc.a(lib_a-iswspace.o)
 .debug_loc     0x0000000000014143       0xb0 /usr/lib/gcc/arm-none-eabi/6.3.1/../../../arm-none-eabi/lib/thumb/v6-m/libc.a(lib_a-lseekr.o)
 .debug_loc     0x00000000000141f3      0x28a /usr/lib/gcc/arm-none-eabi/6.3.1/../../../arm-none-eabi/lib/thumb/v6-m/libc.a(lib_a-mbrtowc.o)
 .debug_loc     0x000000000001447d      0x1a5 /usr/lib/gcc/arm-none-eabi/6.3.1/../../../arm-none-eabi/lib/thumb/v6-m/libc.a(lib_a-mbtowc_r.o)
 .debug_loc     0x0000000000014622       0xb0 /usr/lib/gcc/arm-none-eabi/6.3.1/../../../arm-none-eabi/lib/thumb/v6-m/libc.a(lib_a-readr.o)
 .debug_loc     0x00000000000146d2      0x18c /usr/lib/gcc/arm-none-eabi/6.3.1/../../../arm-none-eabi/lib/thumb/v6-m/libc.a(lib_a-sccl.o)
 .debug_loc     0x000000000001485e      0x3d8 /usr/lib/gcc/arm-none-eabi/6.3.1/../../../arm-none-eabi/lib/thumb/v6-m/libc.a(lib_a-strtoull_r.o)
 .debug_loc     0x0000000000014c36      0x253 /usr/lib/gcc/arm-none-eabi/6.3.1/../../../arm-none-eabi/lib/thumb/v6-m/libc.a(lib_a-wcrtomb.o)
 .debug_loc     0x0000000000014e89      0x13d /usr/lib/gcc/arm-none-eabi/6.3.1/../../../arm-none-eabi/lib/thumb/v6-m/libc.a(lib_a-wctomb_r.o)
 .debug_loc     0x0000000000014fc6       0x21 /usr/lib/gcc/arm-none-eabi/6.3.1/../../../arm-none-eabi/lib/thumb/v6-m/libnosys.a(close.o)
 .debug_loc     0x0000000000014fe7       0x21 /usr/lib/gcc/arm-none-eabi/6.3.1/../../../arm-none-eabi/lib/thumb/v6-m/libnosys.a(fstat.o)
 .debug_loc     0x0000000000015008       0x21 /usr/lib/gcc/arm-none-eabi/6.3.1/../../../arm-none-eabi/lib/thumb/v6-m/libnosys.a(isatty.o)
 .debug_loc     0x0000000000015029       0x21 /usr/lib/gcc/arm-none-eabi/6.3.1/../../../arm-none-eabi/lib/thumb/v6-m/libnosys.a(kill.o)
 .debug_loc     0x000000000001504a       0x42 /usr/lib/gcc/arm-none-eabi/6.3.1/../../../arm-none-eabi/lib/thumb/v6-m/libnosys.a(lseek.o)

.debug_str      0x0000000000000000     0x2a6b
 .debug_str     0x0000000000000000      0x50f /usr/lib/gcc/arm-none-eabi/6.3.1/../../../arm-none-eabi/lib/thumb/v6-m/libc.a(lib_a-atexit.o)
                                        0x5b1 (size before relaxing)
 .debug_str     0x000000000000050f       0x4d /usr/lib/gcc/arm-none-eabi/6.3.1/../../../arm-none-eabi/lib/thumb/v6-m/libc.a(lib_a-atoi.o)
                                        0x582 (size before relaxing)
 .debug_str     0x000000000000055c       0x52 /usr/lib/gcc/arm-none-eabi/6.3.1/../../../arm-none-eabi/lib/thumb/v6-m/libc.a(lib_a-atoll.o)
                                        0x587 (size before relaxing)
 .debug_str     0x00000000000005ae       0x42 /usr/lib/gcc/arm-none-eabi/6.3.1/../../../arm-none-eabi/lib/thumb/v6-m/libc.a(lib_a-calloc.o)
                                        0x583 (size before relaxing)
 .debug_str     0x00000000000005f0      0x18a /usr/lib/gcc/arm-none-eabi/6.3.1/../../../arm-none-eabi/lib/thumb/v6-m/libc.a(lib_a-callocr.o)
                                        0x6f2 (size before relaxing)
 .debug_str     0x000000000000077a       0xc4 /usr/lib/gcc/arm-none-eabi/6.3.1/../../../arm-none-eabi/lib/thumb/v6-m/libc.a(lib_a-ctime.o)
                                        0x598 (size before relaxing)
 .debug_str     0x000000000000083e       0x98 /usr/lib/gcc/arm-none-eabi/6.3.1/../../../arm-none-eabi/lib/thumb/v6-m/libc.a(lib_a-impure.o)
                                        0x566 (size before relaxing)
 .debug_str     0x00000000000008d6       0x3c /usr/lib/gcc/arm-none-eabi/6.3.1/../../../arm-none-eabi/lib/thumb/v6-m/libc.a(lib_a-lcltime.o)
                                        0x5e4 (size before relaxing)
 .debug_str     0x0000000000000912       0xfc /usr/lib/gcc/arm-none-eabi/6.3.1/../../../arm-none-eabi/lib/thumb/v6-m/libc.a(lib_a-lcltime_r.o)
                                        0x6ac (size before relaxing)
 .debug_str     0x0000000000000a0e       0x45 /usr/lib/gcc/arm-none-eabi/6.3.1/../../../arm-none-eabi/lib/thumb/v6-m/libc.a(lib_a-malloc.o)
                                        0x597 (size before relaxing)
 .debug_str     0x0000000000000a53       0xe5 /usr/lib/gcc/arm-none-eabi/6.3.1/../../../arm-none-eabi/lib/thumb/v6-m/libc.a(lib_a-mallocr.o)
                                        0x7ce (size before relaxing)
 .debug_str     0x0000000000000b38       0x45 /usr/lib/gcc/arm-none-eabi/6.3.1/../../../arm-none-eabi/lib/thumb/v6-m/libc.a(lib_a-mlock.o)
                                        0x58e (size before relaxing)
 .debug_str     0x0000000000000b7d       0x36 /usr/lib/gcc/arm-none-eabi/6.3.1/../../../arm-none-eabi/lib/thumb/v6-m/libc.a(lib_a-month_lengths.o)
                                        0x58b (size before relaxing)
 .debug_str     0x0000000000000bb3       0x45 /usr/lib/gcc/arm-none-eabi/6.3.1/../../../arm-none-eabi/lib/thumb/v6-m/libc.a(lib_a-realloc.o)
                                        0x588 (size before relaxing)
 .debug_str     0x0000000000000bf8       0x5e /usr/lib/gcc/arm-none-eabi/6.3.1/../../../arm-none-eabi/lib/thumb/v6-m/libc.a(lib_a-reallocr.o)
                                        0x785 (size before relaxing)
 .debug_str     0x0000000000000c56       0x44 /usr/lib/gcc/arm-none-eabi/6.3.1/../../../arm-none-eabi/lib/thumb/v6-m/libc.a(lib_a-sbrkr.o)
                                        0x5a9 (size before relaxing)
 .debug_str     0x0000000000000c9a       0xfa /usr/lib/gcc/arm-none-eabi/6.3.1/../../../arm-none-eabi/lib/thumb/v6-m/libc.a(lib_a-signal.o)
                                        0x609 (size before relaxing)
 .debug_str     0x0000000000000d94       0x3f /usr/lib/gcc/arm-none-eabi/6.3.1/../../../arm-none-eabi/lib/thumb/v6-m/libc.a(lib_a-signalr.o)
                                        0x5ae (size before relaxing)
 .debug_str     0x0000000000000dd3       0xba /usr/lib/gcc/arm-none-eabi/6.3.1/../../../arm-none-eabi/lib/thumb/v6-m/libc.a(lib_a-strlen-stub.o)
                                        0x58f (size before relaxing)
 .debug_str     0x0000000000000e8d       0x97 /usr/lib/gcc/arm-none-eabi/6.3.1/../../../arm-none-eabi/lib/thumb/v6-m/libc.a(lib_a-strncmp.o)
                                        0x56c (size before relaxing)
 .debug_str     0x0000000000000f24       0x61 /usr/lib/gcc/arm-none-eabi/6.3.1/../../../arm-none-eabi/lib/thumb/v6-m/libc.a(lib_a-strtol.o)
                                        0x5c8 (size before relaxing)
 .debug_str     0x0000000000000f85       0x32 /usr/lib/gcc/arm-none-eabi/6.3.1/../../../arm-none-eabi/lib/thumb/v6-m/libc.a(lib_a-strtoll.o)
                                        0x5ac (size before relaxing)
 .debug_str     0x0000000000000fb7       0x34 /usr/lib/gcc/arm-none-eabi/6.3.1/../../../arm-none-eabi/lib/thumb/v6-m/libc.a(lib_a-strtoll_r.o)
                                        0x5c5 (size before relaxing)
 .debug_str     0x0000000000000feb       0x5c /usr/lib/gcc/arm-none-eabi/6.3.1/../../../arm-none-eabi/lib/thumb/v6-m/libc.a(lib_a-tzcalc_limits.o)
                                        0x64b (size before relaxing)
 .debug_str     0x0000000000001047       0x40 /usr/lib/gcc/arm-none-eabi/6.3.1/../../../arm-none-eabi/lib/thumb/v6-m/libc.a(lib_a-tzlock.o)
                                        0x5ab (size before relaxing)
 .debug_str     0x0000000000001087       0x46 /usr/lib/gcc/arm-none-eabi/6.3.1/../../../arm-none-eabi/lib/thumb/v6-m/libc.a(lib_a-tzset.o)
                                        0x5c1 (size before relaxing)
 .debug_str     0x00000000000010cd       0x86 /usr/lib/gcc/arm-none-eabi/6.3.1/../../../arm-none-eabi/lib/thumb/v6-m/libc.a(lib_a-tzset_r.o)
                                        0x6c1 (size before relaxing)
 .debug_str     0x0000000000001153       0x2f /usr/lib/gcc/arm-none-eabi/6.3.1/../../../arm-none-eabi/lib/thumb/v6-m/libc.a(lib_a-tzvars.o)
                                        0x574 (size before relaxing)
 .debug_str     0x0000000000001182      0x479 /usr/lib/gcc/arm-none-eabi/6.3.1/../../../arm-none-eabi/lib/thumb/v6-m/libc.a(lib_a-vfprintf.o)
                                        0x9ca (size before relaxing)
 .debug_str     0x00000000000015fb       0x40 /usr/lib/gcc/arm-none-eabi/6.3.1/../../../arm-none-eabi/lib/thumb/v6-m/libc.a(lib_a-wbuf.o)
                                        0x6ef (size before relaxing)
 .debug_str     0x000000000000163b       0x3d /usr/lib/gcc/arm-none-eabi/6.3.1/../../../arm-none-eabi/lib/thumb/v6-m/libc.a(lib_a-wsetup.o)
                                        0x6ea (size before relaxing)
 .debug_str     0x0000000000001678       0x41 /usr/lib/gcc/arm-none-eabi/6.3.1/../../../arm-none-eabi/lib/thumb/v6-m/libc.a(lib_a-__atexit.o)
                                        0x5cb (size before relaxing)
 .debug_str     0x00000000000016b9       0x3a /usr/lib/gcc/arm-none-eabi/6.3.1/../../../arm-none-eabi/lib/thumb/v6-m/libc.a(lib_a-asctime.o)
                                        0x5d9 (size before relaxing)
 .debug_str     0x00000000000016f3       0x4d /usr/lib/gcc/arm-none-eabi/6.3.1/../../../arm-none-eabi/lib/thumb/v6-m/libc.a(lib_a-asctime_r.o)
                                        0x5ef (size before relaxing)
 .debug_str     0x0000000000001740       0x8c /usr/lib/gcc/arm-none-eabi/6.3.1/../../../arm-none-eabi/lib/thumb/v6-m/libc.a(lib_a-ctype_.o)
                                        0x19b (size before relaxing)
 .debug_str     0x00000000000017cc      0x16e /usr/lib/gcc/arm-none-eabi/6.3.1/../../../arm-none-eabi/lib/thumb/v6-m/libc.a(lib_a-dtoa.o)
                                        0x75a (size before relaxing)
 .debug_str     0x000000000000193a       0x60 /usr/lib/gcc/arm-none-eabi/6.3.1/../../../arm-none-eabi/lib/thumb/v6-m/libc.a(lib_a-fflush.o)
                                        0x718 (size before relaxing)
 .debug_str     0x000000000000199a      0x113 /usr/lib/gcc/arm-none-eabi/6.3.1/../../../arm-none-eabi/lib/thumb/v6-m/libc.a(lib_a-findfp.o)
                                        0x7f4 (size before relaxing)
 .debug_str     0x0000000000001aad       0x34 /usr/lib/gcc/arm-none-eabi/6.3.1/../../../arm-none-eabi/lib/thumb/v6-m/libc.a(lib_a-freer.o)
                                        0x747 (size before relaxing)
 .debug_str     0x0000000000001ae1       0x3e /usr/lib/gcc/arm-none-eabi/6.3.1/../../../arm-none-eabi/lib/thumb/v6-m/libc.a(lib_a-fwalk.o)
                                        0x6dc (size before relaxing)
 .debug_str     0x0000000000001b1f       0x60 /usr/lib/gcc/arm-none-eabi/6.3.1/../../../arm-none-eabi/lib/thumb/v6-m/libc.a(lib_a-getenv_r.o)
                                        0x5c5 (size before relaxing)
 .debug_str     0x0000000000001b7f       0x32 /usr/lib/gcc/arm-none-eabi/6.3.1/../../../arm-none-eabi/lib/thumb/v6-m/libc.a(lib_a-gettzinfo.o)
                                        0x607 (size before relaxing)
 .debug_str     0x0000000000001bb1       0x5e /usr/lib/gcc/arm-none-eabi/6.3.1/../../../arm-none-eabi/lib/thumb/v6-m/libc.a(lib_a-gmtime_r.o)
                                        0x619 (size before relaxing)
 .debug_str     0x0000000000001c0f      0x25b /usr/lib/gcc/arm-none-eabi/6.3.1/../../../arm-none-eabi/lib/thumb/v6-m/libc.a(lib_a-locale.o)
                                        0x83c (size before relaxing)
 .debug_str     0x0000000000001e6a      0x150 /usr/lib/gcc/arm-none-eabi/6.3.1/../../../arm-none-eabi/lib/thumb/v6-m/libc.a(lib_a-makebuf.o)
                                        0x856 (size before relaxing)
 .debug_str     0x0000000000001fba       0x51 /usr/lib/gcc/arm-none-eabi/6.3.1/../../../arm-none-eabi/lib/thumb/v6-m/libc.a(lib_a-memchr-stub.o)
                                        0x596 (size before relaxing)
 .debug_str     0x000000000000200b       0x53 /usr/lib/gcc/arm-none-eabi/6.3.1/../../../arm-none-eabi/lib/thumb/v6-m/libc.a(lib_a-memmove.o)
                                        0x59d (size before relaxing)
 .debug_str     0x000000000000205e       0x80 /usr/lib/gcc/arm-none-eabi/6.3.1/../../../arm-none-eabi/lib/thumb/v6-m/libc.a(lib_a-mprec.o)
                                        0x703 (size before relaxing)
 .debug_str     0x00000000000020de       0x5b /usr/lib/gcc/arm-none-eabi/6.3.1/../../../arm-none-eabi/lib/thumb/v6-m/libc.a(lib_a-reent.o)
                                        0x5a2 (size before relaxing)
 .debug_str     0x0000000000002139       0x4c /usr/lib/gcc/arm-none-eabi/6.3.1/../../../arm-none-eabi/lib/thumb/v6-m/libc.a(lib_a-siprintf.o)
                                        0x6e5 (size before relaxing)
 .debug_str     0x0000000000002185       0x4b /usr/lib/gcc/arm-none-eabi/6.3.1/../../../arm-none-eabi/lib/thumb/v6-m/libc.a(lib_a-siscanf.o)
                                        0x6ea (size before relaxing)
 .debug_str     0x00000000000021d0       0x8f /usr/lib/gcc/arm-none-eabi/6.3.1/../../../arm-none-eabi/lib/thumb/v6-m/libc.a(lib_a-stdio.o)
                                        0x730 (size before relaxing)
 .debug_str     0x000000000000225f       0x39 /usr/lib/gcc/arm-none-eabi/6.3.1/../../../arm-none-eabi/lib/thumb/v6-m/libc.a(lib_a-strcpy.o)
                                        0x570 (size before relaxing)
 .debug_str     0x0000000000002298       0x3d /usr/lib/gcc/arm-none-eabi/6.3.1/../../../arm-none-eabi/lib/thumb/v6-m/libc.a(lib_a-strtoul.o)
                                        0x5cb (size before relaxing)
 .debug_str     0x00000000000022d5       0x13 /usr/lib/gcc/arm-none-eabi/6.3.1/../../../arm-none-eabi/lib/thumb/v6-m/libc.a(lib_a-svfiprintf.o)
                                        0x8f6 (size before relaxing)
 .debug_str     0x00000000000022e8      0x115 /usr/lib/gcc/arm-none-eabi/6.3.1/../../../arm-none-eabi/lib/thumb/v6-m/libc.a(lib_a-svfiscanf.o)
                                        0x8af (size before relaxing)
 .debug_str     0x00000000000023fd       0x41 /usr/lib/gcc/arm-none-eabi/6.3.1/../../../arm-none-eabi/lib/thumb/v6-m/libc.a(lib_a-ungetc.o)
                                        0x6ff (size before relaxing)
 .debug_str     0x000000000000243e       0x2e /usr/lib/gcc/arm-none-eabi/6.3.1/../../../arm-none-eabi/lib/thumb/v6-m/libc.a(lib_a-vfiprintf.o)
                                        0x924 (size before relaxing)
 .debug_str     0x000000000000246c       0x30 /usr/lib/gcc/arm-none-eabi/6.3.1/../../../arm-none-eabi/lib/thumb/v6-m/libc.a(lib_a-writer.o)
                                        0x5a6 (size before relaxing)
 .debug_str     0x000000000000249c       0x30 /usr/lib/gcc/arm-none-eabi/6.3.1/../../../arm-none-eabi/lib/thumb/v6-m/libc.a(lib_a-closer.o)
                                        0x596 (size before relaxing)
 .debug_str     0x00000000000024cc       0x3e /usr/lib/gcc/arm-none-eabi/6.3.1/../../../arm-none-eabi/lib/thumb/v6-m/libc.a(lib_a-environ.o)
                                        0x10c (size before relaxing)
 .debug_str     0x000000000000250a       0x44 /usr/lib/gcc/arm-none-eabi/6.3.1/../../../arm-none-eabi/lib/thumb/v6-m/libc.a(lib_a-envlock.o)
                                        0x587 (size before relaxing)
 .debug_str     0x000000000000254e       0x41 /usr/lib/gcc/arm-none-eabi/6.3.1/../../../arm-none-eabi/lib/thumb/v6-m/libc.a(lib_a-fclose.o)
                                        0x701 (size before relaxing)
 .debug_str     0x000000000000258f       0x4e /usr/lib/gcc/arm-none-eabi/6.3.1/../../../arm-none-eabi/lib/thumb/v6-m/libc.a(lib_a-fputwc.o)
                                        0x730 (size before relaxing)
 .debug_str     0x00000000000025dd       0x3d /usr/lib/gcc/arm-none-eabi/6.3.1/../../../arm-none-eabi/lib/thumb/v6-m/libc.a(lib_a-fstatr.o)
                                        0x6fd (size before relaxing)
 .debug_str     0x000000000000261a       0x40 /usr/lib/gcc/arm-none-eabi/6.3.1/../../../arm-none-eabi/lib/thumb/v6-m/libc.a(lib_a-fvwrite.o)
                                        0x769 (size before relaxing)
 .debug_str     0x000000000000265a       0x39 /usr/lib/gcc/arm-none-eabi/6.3.1/../../../arm-none-eabi/lib/thumb/v6-m/libc.a(lib_a-isattyr.o)
                                        0x5a0 (size before relaxing)
 .debug_str     0x0000000000002693       0x32 /usr/lib/gcc/arm-none-eabi/6.3.1/../../../arm-none-eabi/lib/thumb/v6-m/libc.a(lib_a-iswspace.o)
                                        0x57b (size before relaxing)
 .debug_str     0x00000000000026c5       0x37 /usr/lib/gcc/arm-none-eabi/6.3.1/../../../arm-none-eabi/lib/thumb/v6-m/libc.a(lib_a-lseekr.o)
                                        0x5a4 (size before relaxing)
 .debug_str     0x00000000000026fc       0x41 /usr/lib/gcc/arm-none-eabi/6.3.1/../../../arm-none-eabi/lib/thumb/v6-m/libc.a(lib_a-mbrtowc.o)
                                        0x5f4 (size before relaxing)
 .debug_str     0x000000000000273d       0x52 /usr/lib/gcc/arm-none-eabi/6.3.1/../../../arm-none-eabi/lib/thumb/v6-m/libc.a(lib_a-mbtowc_r.o)
                                        0x610 (size before relaxing)
 .debug_str     0x000000000000278f       0x2f /usr/lib/gcc/arm-none-eabi/6.3.1/../../../arm-none-eabi/lib/thumb/v6-m/libc.a(lib_a-readr.o)
                                        0x5a4 (size before relaxing)
 .debug_str     0x00000000000027be       0x3e /usr/lib/gcc/arm-none-eabi/6.3.1/../../../arm-none-eabi/lib/thumb/v6-m/libc.a(lib_a-sccl.o)
                                        0x6aa (size before relaxing)
 .debug_str     0x00000000000027fc       0x35 /usr/lib/gcc/arm-none-eabi/6.3.1/../../../arm-none-eabi/lib/thumb/v6-m/libc.a(lib_a-strtoull_r.o)
                                        0x5c7 (size before relaxing)
 .debug_str     0x0000000000002831       0x3a /usr/lib/gcc/arm-none-eabi/6.3.1/../../../arm-none-eabi/lib/thumb/v6-m/libc.a(lib_a-wcrtomb.o)
                                        0x5f4 (size before relaxing)
 .debug_str     0x000000000000286b       0x53 /usr/lib/gcc/arm-none-eabi/6.3.1/../../../arm-none-eabi/lib/thumb/v6-m/libc.a(lib_a-wctomb_r.o)
                                        0x609 (size before relaxing)
 .debug_str     0x00000000000028be       0xd0 /usr/lib/gcc/arm-none-eabi/6.3.1/../../../arm-none-eabi/lib/thumb/v6-m/libnosys.a(close.o)
                                        0x560 (size before relaxing)
 .debug_str     0x000000000000298e       0x2c /usr/lib/gcc/arm-none-eabi/6.3.1/../../../arm-none-eabi/lib/thumb/v6-m/libnosys.a(fstat.o)
                                        0x6c1 (size before relaxing)
 .debug_str     0x00000000000029ba       0x2d /usr/lib/gcc/arm-none-eabi/6.3.1/../../../arm-none-eabi/lib/thumb/v6-m/libnosys.a(getpid.o)
                                        0x562 (size before relaxing)
 .debug_str     0x00000000000029e7       0x2d /usr/lib/gcc/arm-none-eabi/6.3.1/../../../arm-none-eabi/lib/thumb/v6-m/libnosys.a(isatty.o)
                                        0x567 (size before relaxing)
 .debug_str     0x0000000000002a14       0x2b /usr/lib/gcc/arm-none-eabi/6.3.1/../../../arm-none-eabi/lib/thumb/v6-m/libnosys.a(kill.o)
                                        0x55e (size before relaxing)
 .debug_str     0x0000000000002a3f       0x2c /usr/lib/gcc/arm-none-eabi/6.3.1/../../../arm-none-eabi/lib/thumb/v6-m/libnosys.a(lseek.o)
                                        0x565 (size before relaxing)

.debug_frame    0x0000000000000000     0x1798
 .debug_frame   0x0000000000000000       0x28 /usr/lib/gcc/arm-none-eabi/6.3.1/../../../arm-none-eabi/lib/thumb/v6-m/libc.a(lib_a-atexit.o)
 .debug_frame   0x0000000000000028       0x40 /usr/lib/gcc/arm-none-eabi/6.3.1/../../../arm-none-eabi/lib/thumb/v6-m/libc.a(lib_a-atoi.o)
 .debug_frame   0x0000000000000068       0x40 /usr/lib/gcc/arm-none-eabi/6.3.1/../../../arm-none-eabi/lib/thumb/v6-m/libc.a(lib_a-atoll.o)
 .debug_frame   0x00000000000000a8       0x28 /usr/lib/gcc/arm-none-eabi/6.3.1/../../../arm-none-eabi/lib/thumb/v6-m/libc.a(lib_a-calloc.o)
 .debug_frame   0x00000000000000d0       0x28 /usr/lib/gcc/arm-none-eabi/6.3.1/../../../arm-none-eabi/lib/thumb/v6-m/libc.a(lib_a-callocr.o)
 .debug_frame   0x00000000000000f8       0x28 /usr/lib/gcc/arm-none-eabi/6.3.1/../../../arm-none-eabi/lib/thumb/v6-m/libc.a(lib_a-ctime.o)
 .debug_frame   0x0000000000000120       0x28 /usr/lib/gcc/arm-none-eabi/6.3.1/../../../arm-none-eabi/lib/thumb/v6-m/libc.a(lib_a-lcltime.o)
 .debug_frame   0x0000000000000148       0x38 /usr/lib/gcc/arm-none-eabi/6.3.1/../../../arm-none-eabi/lib/thumb/v6-m/libc.a(lib_a-lcltime_r.o)
 .debug_frame   0x0000000000000180       0x40 /usr/lib/gcc/arm-none-eabi/6.3.1/../../../arm-none-eabi/lib/thumb/v6-m/libc.a(lib_a-malloc.o)
 .debug_frame   0x00000000000001c0       0x3c /usr/lib/gcc/arm-none-eabi/6.3.1/../../../arm-none-eabi/lib/thumb/v6-m/libc.a(lib_a-mallocr.o)
 .debug_frame   0x00000000000001fc       0x30 /usr/lib/gcc/arm-none-eabi/6.3.1/../../../arm-none-eabi/lib/thumb/v6-m/libc.a(lib_a-mlock.o)
 .debug_frame   0x000000000000022c       0x28 /usr/lib/gcc/arm-none-eabi/6.3.1/../../../arm-none-eabi/lib/thumb/v6-m/libc.a(lib_a-realloc.o)
 .debug_frame   0x0000000000000254       0x3c /usr/lib/gcc/arm-none-eabi/6.3.1/../../../arm-none-eabi/lib/thumb/v6-m/libc.a(lib_a-reallocr.o)
 .debug_frame   0x0000000000000290       0x2c /usr/lib/gcc/arm-none-eabi/6.3.1/../../../arm-none-eabi/lib/thumb/v6-m/libc.a(lib_a-sbrkr.o)
 .debug_frame   0x00000000000002bc       0xf8 /usr/lib/gcc/arm-none-eabi/6.3.1/../../../arm-none-eabi/lib/thumb/v6-m/libc.a(lib_a-signal.o)
 .debug_frame   0x00000000000003b4       0x44 /usr/lib/gcc/arm-none-eabi/6.3.1/../../../arm-none-eabi/lib/thumb/v6-m/libc.a(lib_a-signalr.o)
 .debug_frame   0x00000000000003f8       0x20 /usr/lib/gcc/arm-none-eabi/6.3.1/../../../arm-none-eabi/lib/thumb/v6-m/libc.a(lib_a-strcmp.o)
 .debug_frame   0x0000000000000418       0x28 /usr/lib/gcc/arm-none-eabi/6.3.1/../../../arm-none-eabi/lib/thumb/v6-m/libc.a(lib_a-strlen-stub.o)
 .debug_frame   0x0000000000000440       0x2c /usr/lib/gcc/arm-none-eabi/6.3.1/../../../arm-none-eabi/lib/thumb/v6-m/libc.a(lib_a-strncmp.o)
 .debug_frame   0x000000000000046c       0x54 /usr/lib/gcc/arm-none-eabi/6.3.1/../../../arm-none-eabi/lib/thumb/v6-m/libc.a(lib_a-strtol.o)
 .debug_frame   0x00000000000004c0       0x28 /usr/lib/gcc/arm-none-eabi/6.3.1/../../../arm-none-eabi/lib/thumb/v6-m/libc.a(lib_a-strtoll.o)
 .debug_frame   0x00000000000004e8       0x3c /usr/lib/gcc/arm-none-eabi/6.3.1/../../../arm-none-eabi/lib/thumb/v6-m/libc.a(lib_a-strtoll_r.o)
 .debug_frame   0x0000000000000524       0x3c /usr/lib/gcc/arm-none-eabi/6.3.1/../../../arm-none-eabi/lib/thumb/v6-m/libc.a(lib_a-tzcalc_limits.o)
 .debug_frame   0x0000000000000560       0x30 /usr/lib/gcc/arm-none-eabi/6.3.1/../../../arm-none-eabi/lib/thumb/v6-m/libc.a(lib_a-tzlock.o)
 .debug_frame   0x0000000000000590       0x40 /usr/lib/gcc/arm-none-eabi/6.3.1/../../../arm-none-eabi/lib/thumb/v6-m/libc.a(lib_a-tzset.o)
 .debug_frame   0x00000000000005d0       0x54 /usr/lib/gcc/arm-none-eabi/6.3.1/../../../arm-none-eabi/lib/thumb/v6-m/libc.a(lib_a-tzset_r.o)
 .debug_frame   0x0000000000000624       0x74 /usr/lib/gcc/arm-none-eabi/6.3.1/../../../arm-none-eabi/lib/thumb/v6-m/libc.a(lib_a-vfprintf.o)
 .debug_frame   0x0000000000000698       0x48 /usr/lib/gcc/arm-none-eabi/6.3.1/../../../arm-none-eabi/lib/thumb/v6-m/libc.a(lib_a-wbuf.o)
 .debug_frame   0x00000000000006e0       0x2c /usr/lib/gcc/arm-none-eabi/6.3.1/../../../arm-none-eabi/lib/thumb/v6-m/libc.a(lib_a-wsetup.o)
 .debug_frame   0x000000000000070c       0x3c /usr/lib/gcc/arm-none-eabi/6.3.1/../../../arm-none-eabi/lib/thumb/v6-m/libc.a(lib_a-__atexit.o)
 .debug_frame   0x0000000000000748       0x28 /usr/lib/gcc/arm-none-eabi/6.3.1/../../../arm-none-eabi/lib/thumb/v6-m/libc.a(lib_a-asctime.o)
 .debug_frame   0x0000000000000770       0x2c /usr/lib/gcc/arm-none-eabi/6.3.1/../../../arm-none-eabi/lib/thumb/v6-m/libc.a(lib_a-asctime_r.o)
 .debug_frame   0x000000000000079c       0x68 /usr/lib/gcc/arm-none-eabi/6.3.1/../../../arm-none-eabi/lib/thumb/v6-m/libc.a(lib_a-dtoa.o)
 .debug_frame   0x0000000000000804       0x68 /usr/lib/gcc/arm-none-eabi/6.3.1/../../../arm-none-eabi/lib/thumb/v6-m/libc.a(lib_a-fflush.o)
 .debug_frame   0x000000000000086c      0x14c /usr/lib/gcc/arm-none-eabi/6.3.1/../../../arm-none-eabi/lib/thumb/v6-m/libc.a(lib_a-findfp.o)
 .debug_frame   0x00000000000009b8       0x50 /usr/lib/gcc/arm-none-eabi/6.3.1/../../../arm-none-eabi/lib/thumb/v6-m/libc.a(lib_a-freer.o)
 .debug_frame   0x0000000000000a08       0x5c /usr/lib/gcc/arm-none-eabi/6.3.1/../../../arm-none-eabi/lib/thumb/v6-m/libc.a(lib_a-fwalk.o)
 .debug_frame   0x0000000000000a64       0x50 /usr/lib/gcc/arm-none-eabi/6.3.1/../../../arm-none-eabi/lib/thumb/v6-m/libc.a(lib_a-getenv_r.o)
 .debug_frame   0x0000000000000ab4       0x20 /usr/lib/gcc/arm-none-eabi/6.3.1/../../../arm-none-eabi/lib/thumb/v6-m/libc.a(lib_a-gettzinfo.o)
 .debug_frame   0x0000000000000ad4       0x38 /usr/lib/gcc/arm-none-eabi/6.3.1/../../../arm-none-eabi/lib/thumb/v6-m/libc.a(lib_a-gmtime_r.o)
 .debug_frame   0x0000000000000b0c       0xa4 /usr/lib/gcc/arm-none-eabi/6.3.1/../../../arm-none-eabi/lib/thumb/v6-m/libc.a(lib_a-locale.o)
 .debug_frame   0x0000000000000bb0       0x50 /usr/lib/gcc/arm-none-eabi/6.3.1/../../../arm-none-eabi/lib/thumb/v6-m/libc.a(lib_a-makebuf.o)
 .debug_frame   0x0000000000000c00       0x2c /usr/lib/gcc/arm-none-eabi/6.3.1/../../../arm-none-eabi/lib/thumb/v6-m/libc.a(lib_a-memchr-stub.o)
 .debug_frame   0x0000000000000c2c       0x30 /usr/lib/gcc/arm-none-eabi/6.3.1/../../../arm-none-eabi/lib/thumb/v6-m/libc.a(lib_a-memmove.o)
 .debug_frame   0x0000000000000c5c      0x260 /usr/lib/gcc/arm-none-eabi/6.3.1/../../../arm-none-eabi/lib/thumb/v6-m/libc.a(lib_a-mprec.o)
 .debug_frame   0x0000000000000ebc       0x48 /usr/lib/gcc/arm-none-eabi/6.3.1/../../../arm-none-eabi/lib/thumb/v6-m/libc.a(lib_a-reent.o)
 .debug_frame   0x0000000000000f04       0x50 /usr/lib/gcc/arm-none-eabi/6.3.1/../../../arm-none-eabi/lib/thumb/v6-m/libc.a(lib_a-siprintf.o)
 .debug_frame   0x0000000000000f54       0x58 /usr/lib/gcc/arm-none-eabi/6.3.1/../../../arm-none-eabi/lib/thumb/v6-m/libc.a(lib_a-siscanf.o)
 .debug_frame   0x0000000000000fac       0x90 /usr/lib/gcc/arm-none-eabi/6.3.1/../../../arm-none-eabi/lib/thumb/v6-m/libc.a(lib_a-stdio.o)
 .debug_frame   0x000000000000103c       0x20 /usr/lib/gcc/arm-none-eabi/6.3.1/../../../arm-none-eabi/lib/thumb/v6-m/libc.a(lib_a-strcpy.o)
 .debug_frame   0x000000000000105c       0x54 /usr/lib/gcc/arm-none-eabi/6.3.1/../../../arm-none-eabi/lib/thumb/v6-m/libc.a(lib_a-strtoul.o)
 .debug_frame   0x00000000000010b0       0x68 /usr/lib/gcc/arm-none-eabi/6.3.1/../../../arm-none-eabi/lib/thumb/v6-m/libc.a(lib_a-svfiprintf.o)
 .debug_frame   0x0000000000001118       0x9c /usr/lib/gcc/arm-none-eabi/6.3.1/../../../arm-none-eabi/lib/thumb/v6-m/libc.a(lib_a-svfiscanf.o)
 .debug_frame   0x00000000000011b4       0x6c /usr/lib/gcc/arm-none-eabi/6.3.1/../../../arm-none-eabi/lib/thumb/v6-m/libc.a(lib_a-ungetc.o)
 .debug_frame   0x0000000000001220       0xb8 /usr/lib/gcc/arm-none-eabi/6.3.1/../../../arm-none-eabi/lib/thumb/v6-m/libc.a(lib_a-vfiprintf.o)
 .debug_frame   0x00000000000012d8       0x2c /usr/lib/gcc/arm-none-eabi/6.3.1/../../../arm-none-eabi/lib/thumb/v6-m/libc.a(lib_a-writer.o)
 .debug_frame   0x0000000000001304       0x2c /usr/lib/gcc/arm-none-eabi/6.3.1/../../../arm-none-eabi/lib/thumb/v6-m/libc.a(lib_a-closer.o)
 .debug_frame   0x0000000000001330       0x30 /usr/lib/gcc/arm-none-eabi/6.3.1/../../../arm-none-eabi/lib/thumb/v6-m/libc.a(lib_a-envlock.o)
 .debug_frame   0x0000000000001360       0x44 /usr/lib/gcc/arm-none-eabi/6.3.1/../../../arm-none-eabi/lib/thumb/v6-m/libc.a(lib_a-fclose.o)
 .debug_frame   0x00000000000013a4       0x6c /usr/lib/gcc/arm-none-eabi/6.3.1/../../../arm-none-eabi/lib/thumb/v6-m/libc.a(lib_a-fputwc.o)
 .debug_frame   0x0000000000001410       0x2c /usr/lib/gcc/arm-none-eabi/6.3.1/../../../arm-none-eabi/lib/thumb/v6-m/libc.a(lib_a-fstatr.o)
 .debug_frame   0x000000000000143c       0x3c /usr/lib/gcc/arm-none-eabi/6.3.1/../../../arm-none-eabi/lib/thumb/v6-m/libc.a(lib_a-fvwrite.o)
 .debug_frame   0x0000000000001478       0x2c /usr/lib/gcc/arm-none-eabi/6.3.1/../../../arm-none-eabi/lib/thumb/v6-m/libc.a(lib_a-isattyr.o)
 .debug_frame   0x00000000000014a4       0x20 /usr/lib/gcc/arm-none-eabi/6.3.1/../../../arm-none-eabi/lib/thumb/v6-m/libc.a(lib_a-iswspace.o)
 .debug_frame   0x00000000000014c4       0x2c /usr/lib/gcc/arm-none-eabi/6.3.1/../../../arm-none-eabi/lib/thumb/v6-m/libc.a(lib_a-lseekr.o)
 .debug_frame   0x00000000000014f0       0x60 /usr/lib/gcc/arm-none-eabi/6.3.1/../../../arm-none-eabi/lib/thumb/v6-m/libc.a(lib_a-mbrtowc.o)
 .debug_frame   0x0000000000001550       0x4c /usr/lib/gcc/arm-none-eabi/6.3.1/../../../arm-none-eabi/lib/thumb/v6-m/libc.a(lib_a-mbtowc_r.o)
 .debug_frame   0x000000000000159c       0x2c /usr/lib/gcc/arm-none-eabi/6.3.1/../../../arm-none-eabi/lib/thumb/v6-m/libc.a(lib_a-readr.o)
 .debug_frame   0x00000000000015c8       0x2c /usr/lib/gcc/arm-none-eabi/6.3.1/../../../arm-none-eabi/lib/thumb/v6-m/libc.a(lib_a-sccl.o)
 .debug_frame   0x00000000000015f4       0x3c /usr/lib/gcc/arm-none-eabi/6.3.1/../../../arm-none-eabi/lib/thumb/v6-m/libc.a(lib_a-strtoull_r.o)
 .debug_frame   0x0000000000001630       0x60 /usr/lib/gcc/arm-none-eabi/6.3.1/../../../arm-none-eabi/lib/thumb/v6-m/libc.a(lib_a-wcrtomb.o)
 .debug_frame   0x0000000000001690       0x48 /usr/lib/gcc/arm-none-eabi/6.3.1/../../../arm-none-eabi/lib/thumb/v6-m/libc.a(lib_a-wctomb_r.o)
 .debug_frame   0x00000000000016d8       0x20 /usr/lib/gcc/arm-none-eabi/6.3.1/../../../arm-none-eabi/lib/thumb/v6-m/libnosys.a(close.o)
 .debug_frame   0x00000000000016f8       0x20 /usr/lib/gcc/arm-none-eabi/6.3.1/../../../arm-none-eabi/lib/thumb/v6-m/libnosys.a(fstat.o)
 .debug_frame   0x0000000000001718       0x20 /usr/lib/gcc/arm-none-eabi/6.3.1/../../../arm-none-eabi/lib/thumb/v6-m/libnosys.a(getpid.o)
 .debug_frame   0x0000000000001738       0x20 /usr/lib/gcc/arm-none-eabi/6.3.1/../../../arm-none-eabi/lib/thumb/v6-m/libnosys.a(isatty.o)
 .debug_frame   0x0000000000001758       0x20 /usr/lib/gcc/arm-none-eabi/6.3.1/../../../arm-none-eabi/lib/thumb/v6-m/libnosys.a(kill.o)
 .debug_frame   0x0000000000001778       0x20 /usr/lib/gcc/arm-none-eabi/6.3.1/../../../arm-none-eabi/lib/thumb/v6-m/libnosys.a(lseek.o)

.debug_ranges   0x0000000000000000      0x8a8
 .debug_ranges  0x0000000000000000       0x30 /usr/lib/gcc/arm-none-eabi/6.3.1/../../../arm-none-eabi/lib/thumb/v6-m/libc.a(lib_a-callocr.o)
 .debug_ranges  0x0000000000000030       0x40 /usr/lib/gcc/arm-none-eabi/6.3.1/../../../arm-none-eabi/lib/thumb/v6-m/libc.a(lib_a-mallocr.o)
 .debug_ranges  0x0000000000000070      0x108 /usr/lib/gcc/arm-none-eabi/6.3.1/../../../arm-none-eabi/lib/thumb/v6-m/libc.a(lib_a-reallocr.o)
 .debug_ranges  0x0000000000000178       0x28 /usr/lib/gcc/arm-none-eabi/6.3.1/../../../arm-none-eabi/lib/thumb/v6-m/libc.a(lib_a-signal.o)
 .debug_ranges  0x00000000000001a0       0x20 /usr/lib/gcc/arm-none-eabi/6.3.1/../../../arm-none-eabi/lib/thumb/v6-m/libc.a(lib_a-signalr.o)
 .debug_ranges  0x00000000000001c0       0x40 /usr/lib/gcc/arm-none-eabi/6.3.1/../../../arm-none-eabi/lib/thumb/v6-m/libc.a(lib_a-tzcalc_limits.o)
 .debug_ranges  0x0000000000000200       0x20 /usr/lib/gcc/arm-none-eabi/6.3.1/../../../arm-none-eabi/lib/thumb/v6-m/libc.a(lib_a-tzset_r.o)
 .debug_ranges  0x0000000000000220      0x138 /usr/lib/gcc/arm-none-eabi/6.3.1/../../../arm-none-eabi/lib/thumb/v6-m/libc.a(lib_a-vfprintf.o)
 .debug_ranges  0x0000000000000358       0x18 /usr/lib/gcc/arm-none-eabi/6.3.1/../../../arm-none-eabi/lib/thumb/v6-m/libc.a(lib_a-wbuf.o)
 .debug_ranges  0x0000000000000370       0x28 /usr/lib/gcc/arm-none-eabi/6.3.1/../../../arm-none-eabi/lib/thumb/v6-m/libc.a(lib_a-wsetup.o)
 .debug_ranges  0x0000000000000398       0x38 /usr/lib/gcc/arm-none-eabi/6.3.1/../../../arm-none-eabi/lib/thumb/v6-m/libc.a(lib_a-fflush.o)
 .debug_ranges  0x00000000000003d0       0x30 /usr/lib/gcc/arm-none-eabi/6.3.1/../../../arm-none-eabi/lib/thumb/v6-m/libc.a(lib_a-findfp.o)
 .debug_ranges  0x0000000000000400       0x18 /usr/lib/gcc/arm-none-eabi/6.3.1/../../../arm-none-eabi/lib/thumb/v6-m/libc.a(lib_a-locale.o)
 .debug_ranges  0x0000000000000418       0x58 /usr/lib/gcc/arm-none-eabi/6.3.1/../../../arm-none-eabi/lib/thumb/v6-m/libc.a(lib_a-mprec.o)
 .debug_ranges  0x0000000000000470       0x10 /usr/lib/gcc/arm-none-eabi/6.3.1/../../../arm-none-eabi/lib/thumb/v6-m/libc.a(lib_a-strcpy.o)
 .debug_ranges  0x0000000000000480       0x48 /usr/lib/gcc/arm-none-eabi/6.3.1/../../../arm-none-eabi/lib/thumb/v6-m/libc.a(lib_a-svfiprintf.o)
 .debug_ranges  0x00000000000004c8       0xf0 /usr/lib/gcc/arm-none-eabi/6.3.1/../../../arm-none-eabi/lib/thumb/v6-m/libc.a(lib_a-svfiscanf.o)
 .debug_ranges  0x00000000000005b8       0x18 /usr/lib/gcc/arm-none-eabi/6.3.1/../../../arm-none-eabi/lib/thumb/v6-m/libc.a(lib_a-ungetc.o)
 .debug_ranges  0x00000000000005d0      0x1a0 /usr/lib/gcc/arm-none-eabi/6.3.1/../../../arm-none-eabi/lib/thumb/v6-m/libc.a(lib_a-vfiprintf.o)
 .debug_ranges  0x0000000000000770       0x18 /usr/lib/gcc/arm-none-eabi/6.3.1/../../../arm-none-eabi/lib/thumb/v6-m/libc.a(lib_a-writer.o)
 .debug_ranges  0x0000000000000788       0x20 /usr/lib/gcc/arm-none-eabi/6.3.1/../../../arm-none-eabi/lib/thumb/v6-m/libc.a(lib_a-closer.o)
 .debug_ranges  0x00000000000007a8       0x30 /usr/lib/gcc/arm-none-eabi/6.3.1/../../../arm-none-eabi/lib/thumb/v6-m/libc.a(lib_a-fclose.o)
 .debug_ranges  0x00000000000007d8       0x30 /usr/lib/gcc/arm-none-eabi/6.3.1/../../../arm-none-eabi/lib/thumb/v6-m/libc.a(lib_a-fputwc.o)
 .debug_ranges  0x0000000000000808       0x20 /usr/lib/gcc/arm-none-eabi/6.3.1/../../../arm-none-eabi/lib/thumb/v6-m/libc.a(lib_a-fstatr.o)
 .debug_ranges  0x0000000000000828       0x20 /usr/lib/gcc/arm-none-eabi/6.3.1/../../../arm-none-eabi/lib/thumb/v6-m/libc.a(lib_a-fvwrite.o)
 .debug_ranges  0x0000000000000848       0x20 /usr/lib/gcc/arm-none-eabi/6.3.1/../../../arm-none-eabi/lib/thumb/v6-m/libc.a(lib_a-isattyr.o)
 .debug_ranges  0x0000000000000868       0x18 /usr/lib/gcc/arm-none-eabi/6.3.1/../../../arm-none-eabi/lib/thumb/v6-m/libc.a(lib_a-lseekr.o)
 .debug_ranges  0x0000000000000880       0x18 /usr/lib/gcc/arm-none-eabi/6.3.1/../../../arm-none-eabi/lib/thumb/v6-m/libc.a(lib_a-readr.o)
 .debug_ranges  0x0000000000000898       0x10 /usr/lib/gcc/arm-none-eabi/6.3.1/../../../arm-none-eabi/lib/thumb/v6-m/libc.a(lib_a-sccl.o)

.stab           0x0000000000000000       0x9c
 .stab          0x0000000000000000       0x24 /usr/lib/gcc/arm-none-eabi/6.3.1/../../../arm-none-eabi/lib/thumb/v6-m/libnosys.a(close.o)
 .stab          0x0000000000000024       0x18 /usr/lib/gcc/arm-none-eabi/6.3.1/../../../arm-none-eabi/lib/thumb/v6-m/libnosys.a(fstat.o)
                                         0x24 (size before relaxing)
 .stab          0x000000000000003c       0x18 /usr/lib/gcc/arm-none-eabi/6.3.1/../../../arm-none-eabi/lib/thumb/v6-m/libnosys.a(getpid.o)
                                         0x24 (size before relaxing)
 .stab          0x0000000000000054       0x18 /usr/lib/gcc/arm-none-eabi/6.3.1/../../../arm-none-eabi/lib/thumb/v6-m/libnosys.a(isatty.o)
                                         0x24 (size before relaxing)
 .stab          0x000000000000006c       0x18 /usr/lib/gcc/arm-none-eabi/6.3.1/../../../arm-none-eabi/lib/thumb/v6-m/libnosys.a(kill.o)
                                         0x24 (size before relaxing)
 .stab          0x0000000000000084       0x18 /usr/lib/gcc/arm-none-eabi/6.3.1/../../../arm-none-eabi/lib/thumb/v6-m/libnosys.a(lseek.o)
                                         0x24 (size before relaxing)

.stabstr        0x0000000000000000      0x14f
 .stabstr       0x0000000000000000      0x14f /usr/lib/gcc/arm-none-eabi/6.3.1/../../../arm-none-eabi/lib/thumb/v6-m/libnosys.a(close.o)
